(lp0
(lp1
cnumpy.core.multiarray
scalar
p2
(cnumpy
dtype
p3
(S'f8'
p4
I0
I1
tp5
Rp6
(I3
S'<'
p7
NNNI-1
I-1
I0
tp8
bS'""""""\xf2?'
p9
tp10
Rp11
ag2
(g6
S'""""""\xfa?'
p12
tp13
Rp14
ag2
(g6
S'\x9cG\xa8>\xd3\xd6\xf8?'
p15
tp16
Rp17
ag2
(g6
S'9\x8e\xe38\x8e\xe3\xf8?'
p18
tp19
Rp20
ag2
(g6
S'G\x8a\x86\xf8\xe3\xd6\xf5?'
p21
tp22
Rp23
ag2
(g6
S'\x1d\xb0\xdbc-C\xf7?'
p24
tp25
Rp26
ag2
(g6
S'\xa6a\xbbY\x9eD\xf6?'
p27
tp28
Rp29
ag2
(g6
S'\xcb\xf0\x8d(0\xe9\xf4?'
p30
tp31
Rp32
ag2
(g6
S'\x9b\x80R\xd4\xcbH\xfc?'
p33
tp34
Rp35
ag2
(g6
S'\x9a\x99\x99\x99\x99\x99\xf7?'
p36
tp37
Rp38
ag2
(g6
S'\xbc@&\xc5\x0bd\xfa?'
p39
tp40
Rp41
ag2
(g6
S'\xd9\xd8\xd8\xd8\xd8\xd8\xf8?'
p42
tp43
Rp44
ag2
(g6
S'.\xfcjL\xa4\x07\xfa?'
p45
tp46
Rp47
ag2
(g6
S'\xab\xaa\xaa\xaa\xaa\xaa\xf6?'
p48
tp49
Rp50
ag2
(g6
S'\x8a\x9d\xd8\x89\x9d\xd8\xf9?'
p51
tp52
Rp53
ag2
(g6
S'\xab\xaa\xaa\xaa\xaa\xaa\xf4?'
p54
tp55
Rp56
ag2
(g6
S'\xcfT\xae;^l\xf9?'
p57
tp58
Rp59
ag2
(g6
S'J\x93&M\x9a4\xf9?'
p60
tp61
Rp62
ag2
(g6
S'\xd4A\x1d\xd4A\x1d\xf8?'
p63
tp64
Rp65
ag2
(g6
S'\xcd\xcc\xcc\xcc\xcc\xcc\xf8?'
p66
tp67
Rp68
ag2
(g6
S'\x00\x00\x00\x00\x00@\xf8?'
p69
tp70
Rp71
ag2
(g6
S'\x13\xa7~\xcf-q\xfa?'
p72
tp73
Rp74
ag2
(g6
S'\xf9\x8a\xaf\xf8\x8a\xaf\xf8?'
p75
tp76
Rp77
ag2
(g6
S'\xec\xc4N\xec\xc4N\xfc?'
p78
tp79
Rp80
ag2
(g6
S'2\xc6\x18c\x8c1\xf6?'
p81
tp82
Rp83
ag2
(g6
S'C\xb0\x8e6\xefS\xfc?'
p84
tp85
Rp86
ag2
(g6
S'\x13\xe4)A\x9e\x12\xf8?'
p87
tp88
Rp89
ag2
(g6
S'^Cy\r\xe55\xf4?'
p90
tp91
Rp92
ag2
(g6
S'\x92$I\x92$I\xfe?'
p93
tp94
Rp95
ag2
(g6
S"8z\x82\xa3'8\xfa?"
p96
tp97
Rp98
ag2
(g6
S'\xfc\xf8\xf1\xe3\xc7\x8f\xf7?'
p99
tp100
Rp101
ag2
(g6
S'\xaeG\xe1z\x14\xae\xf7?'
p102
tp103
Rp104
ag2
(g6
S'(\x05\xc9\x9fWY\xfc?'
p105
tp106
Rp107
ag2
(g6
S'\x14;\xb1\x13;\xb1\xf3?'
p108
tp109
Rp110
ag2
(g6
S'\x06}A_\xd0\x17\xf4?'
p111
tp112
Rp113
ag2
(g6
S'-H@\xcd\xae\x17\xf9?'
p114
tp115
Rp116
ag2
(g6
S'iZ\xe5\x8b\xe1\x9f\xf8?'
p117
tp118
Rp119
ag2
(g6
S'\x8a\x9d\xd8\x89\x9d\xd8\xf1?'
p120
tp121
Rp122
ag2
(g6
S'M0\xde\xca>\x87\xf4?'
p123
tp124
Rp125
ag2
(g6
S'\x90\x1f?~\xfc\xf8\xf1?'
p126
tp127
Rp128
ag2
(g6
S'\x92$I\x92$I\xfa?'
p129
tp130
Rp131
ag2
(g6
S'\xd7\x01\xdd\x98\xa7\x8f\xf6?'
p132
tp133
Rp134
ag2
(g6
S'\r\xc1:\xda\xbcO\xf9?'
p135
tp136
Rp137
ag2
(g6
S'oe\x9fCj\x82\xf9?'
p138
tp139
Rp140
ag2
(g6
S'O\xec\xc4N\xec\xc4\xf6?'
p141
tp142
Rp143
ag2
(g6
S'\xd5}ylE\xd0\xf8?'
p144
tp145
Rp146
ag2
(g6
S'\x0eGL{"\x03\xf9?'
p147
tp148
Rp149
ag2
(g6
S'\xd1E\x17]t\xd1\xf7?'
p150
tp151
Rp152
ag2
(g6
S'n\xdb\xb6m\xdb\xb6\xf1?'
p153
tp154
Rp155
ag2
(g6
S'\x85\xebQ\xb8\x1e\x85\xfb?'
p156
tp157
Rp158
ag2
(g6
S'\xd1E\x17]t\xd1\xf3?'
p159
tp160
Rp161
ag2
(g6
S'\xd4w6\xea;\x1b\xf5?'
p162
tp163
Rp164
ag2
(g6
S'\xcd\xcc\xcc\xcc\xcc\xcc\xf4?'
p165
tp166
Rp167
ag2
(g6
S'\x95RJ)\xa5\x94\xf6?'
p168
tp169
Rp170
ag2
(g6
S'\xadvV;\xab\x9d\xf5?'
p171
tp172
Rp173
ag2
(g6
S'\x00\x00\x00\x00\x00\x00\xf0?'
p174
tp175
Rp176
ag2
(g6
S'\xbf<\xb6"h8\xf9?'
p177
tp178
Rp179
ag2
(g6
S'\xd1E\x17]t\xd1\xf5?'
p180
tp181
Rp182
ag2
(g6
S'\x04\x07\x0e\x1c8p\xf8?'
p183
tp184
Rp185
ag2
(g6
S'q\xaf\x82YR\x0e\xf8?'
p186
tp187
Rp188
ag2
(g6
S'\x18\x86a\x18\x86a\xfa?'
p189
tp190
Rp191
ag2
(g6
S"\x17\xa75\xdb'\xaa\xf7?"
p192
tp193
Rp194
ag2
(g6
S'FFFFFF\xf6?'
p195
tp196
Rp197
ag2
(g6
S'\xe1\xe8\t\x8e\x9e\xe0\xf8?'
p198
tp199
Rp200
ag2
(g6
S'BG\x05\xbe\xb8\xfa\xf1?'
p201
tp202
Rp203
ag2
(g6
S'7\x98"\x9fu\x83\xf9?'
p204
tp205
Rp206
ag2
(g6
S'~\xb1\xe4\x17K~\xf9?'
p207
tp208
Rp209
ag2
(g6
S'\xb6\xd6Zk\xad\xb5\xf6?'
p210
tp211
Rp212
ag2
(g6
S'\xc9\xc8\xc8\xc8\xc8\xc8\xf8?'
p213
tp214
Rp215
ag2
(g6
S'I\x92$I\x92$\xf9?'
p216
tp217
Rp218
ag2
(g6
S'I\x92$I\x92$\xf5?'
p219
tp220
Rp221
ag2
(g6
S'\xa3\x8b.\xba\xe8\xa2\xfd?'
p222
tp223
Rp224
ag2
(g6
S'ffffff\xfa?'
p225
tp226
Rp227
ag2
(g6
S'\xe48\x8e\xe38\x8e\xf3?'
p228
tp229
Rp230
ag2
(g6
S's\x98\xc3\x1c\xe60\xf7?'
p231
tp232
Rp233
ag2
(g6
S'""""""\xf2?'
p234
tp235
Rp236
ag2
(g6
S'\x17]t\xd1E\x17\xf6?'
p237
tp238
Rp239
ag2
(g6
S"'u_\x1e[\x11\xfc?"
p240
tp241
Rp242
ag2
(g6
S't\xce9\xe7\x9cs\xfe?'
p243
tp244
Rp245
ag2
(g6
S'\xfd\xdaC.+\x06\xfa?'
p246
tp247
Rp248
ag2
(g6
S'KKKKKK\xfb?'
p249
tp250
Rp251
ag2
(g6
S'\x1aa\xb9\xa7\x11\x96\xfb?'
p252
tp253
Rp254
ag2
(g6
S'\xd9\xfdF\xd9\xfdF\xf9?'
p255
tp256
Rp257
ag2
(g6
S'\xf8j\x8b\\g\x02\xf6?'
p258
tp259
Rp260
ag2
(g6
S'\x88\x1e\xdf\x85\x83\xe8\xf9?'
p261
tp262
Rp263
ag2
(g6
S'\xab\xaa\xaa\xaa\xaa*\xf8?'
p264
tp265
Rp266
ag2
(g6
S'\xab\xaa\xaa\xaa\xaa\xaa\xfa?'
p267
tp268
Rp269
ag2
(g6
S'n\xdb\xb6m\xdb\xb6\xf8?'
p270
tp271
Rp272
ag2
(g6
S'Z\x9eD\xa6a\xbb\xf9?'
p273
tp274
Rp275
ag2
(g6
S'j\x82\xf1V\xf69\xf4?'
p276
tp277
Rp278
ag2
(g6
S'\x08!\x84\x10B\x08\xf9?'
p279
tp280
Rp281
ag2
(g6
S'\x04\xba1O\x1f\xad\xf6?'
p282
tp283
Rp284
ag2
(g6
S'9\x8e\xe38\x8e\xe3\xf8?'
p285
tp286
Rp287
ag2
(g6
S'\x15\x13tW)&\xf8?'
p288
tp289
Rp290
ag2
(g6
S'Jx\xa3\xa9\xf3k\xf7?'
p291
tp292
Rp293
ag2
(g6
S't\xd1E\x17]t\xf9?'
p294
tp295
Rp296
ag2
(g6
S'\xba\xe8\xa2\x8b.\xba\xf8?'
p297
tp298
Rp299
ag2
(g6
S'.\xdf\xf2-\xdf\xf2\xf5?'
p300
tp301
Rp302
ag2
(g6
S'\xd3\xd2\xd2\xd2\xd2\xd2\xf2?'
p303
tp304
Rp305
ag2
(g6
S'\x92$I\x92$I\xfa?'
p306
tp307
Rp308
ag2
(g6
S'\xcf\xf3<\xcf\xf3<\xf7?'
p309
tp310
Rp311
ag2
(g6
S'X\xeei\x84\xe5\x9e\xf6?'
p312
tp313
Rp314
ag2
(g6
S'n\xdb\xb6m\xdb\xb6\xf5?'
p315
tp316
Rp317
ag2
(g6
S'\xa3\x8b.\xba\xe8\xa2\xf7?'
p318
tp319
Rp320
ag2
(g6
S'\xc5N\xec\xc4N\xec\xf4?'
p321
tp322
Rp323
ag2
(g6
S'-\xa6\xb3\x98\xceb\xfa?'
p324
tp325
Rp326
ag2
(g6
S']t\xd1E\x17]\xfc?'
p327
tp328
Rp329
ag2
(g6
S'\xbfX\xf2\x8b%\xbf\xf8?'
p330
tp331
Rp332
ag2
(g6
S'\xc30\x0c\xc30\x0c\xf3?'
p333
tp334
Rp335
ag2
(g6
S'\x86,d!\x0bY\xf8?'
p336
tp337
Rp338
ag2
(g6
S'\xab\xaa\xaa\xaa\xaa\xaa\xf6?'
p339
tp340
Rp341
ag2
(g6
S'\x92$I\x92$I\xfa?'
p342
tp343
Rp344
ag2
(g6
S'\x1cL\x91\xcf\xba\xc1\xf4?'
p345
tp346
Rp347
ag2
(g6
S'\x00\x00\x00\x00\x00\x00\xf8?'
p348
tp349
Rp350
ag2
(g6
S'B\x1a\xa4A\x1a\xa4\xf1?'
p351
tp352
Rp353
ag2
(g6
S'\xbe\xf7\xde{\xef\xbd\xf7?'
p354
tp355
Rp356
ag2
(g6
S'\x89\x88\x88\x88\x88\x88\xf8?'
p357
tp358
Rp359
ag2
(g6
S'\x8a|\xd6\r\xa6\xc8\xf7?'
p360
tp361
Rp362
ag2
(g6
S'B\xee\xfa\xd9be\xf8?'
p363
tp364
Rp365
ag2
(g6
S'\xce\xc7\xe0|\x0c\xce\xf7?'
p366
tp367
Rp368
ag2
(g6
S'j\xb1\x8d\x9f\x16\xdb\xf8?'
p369
tp370
Rp371
ag2
(g6
S'fffff\xe6\xf6?'
p372
tp373
Rp374
ag2
(g6
S'\xbb\xae\xeb\xba\xae\xeb\xfa?'
p375
tp376
Rp377
ag2
(g6
S'\xcd\xcc\xcc\xcc\xcc\xcc\xf4?'
p378
tp379
Rp380
ag2
(g6
S'\x9a\x99\x99\x99\x99\x99\xf9?'
p381
tp382
Rp383
ag2
(g6
S'E>\xeb\x06S\xe4\xf7?'
p384
tp385
Rp386
ag2
(g6
S'p\x97z2~\xbb\xf4?'
p387
tp388
Rp389
ag2
(g6
S'\xab\xaa\xaa\xaa\xaa\xaa\xfa?'
p390
tp391
Rp392
ag2
(g6
S'\xcc\x06M\xbel\xd0\xf4?'
p393
tp394
Rp395
ag2
(g6
S'\xbecj`\xef\x98\xfa?'
p396
tp397
Rp398
ag2
(g6
S'\x9a\x99\x99\x99\x99\x99\xf9?'
p399
tp400
Rp401
ag2
(g6
S'\xef\x98\x1a\xd8;\xa6\xf6?'
p402
tp403
Rp404
ag2
(g6
S'\x19\x82u\xb4y\x9f\xf6?'
p405
tp406
Rp407
ag2
(g6
S'ffffff\xf6?'
p408
tp409
Rp410
ag2
(g6
S'\x86KW\xbb\r\xca\xfa?'
p411
tp412
Rp413
ag2
(g6
S'xxxxxx\xf8?'
p414
tp415
Rp416
ag2
(g6
S'Dj\x82\xf1V\xf6\xf9?'
p417
tp418
Rp419
ag2
(g6
S'n\xdb\xb6m\xdb\xb6\xed?'
p420
tp421
Rp422
ag2
(g6
S'\x16\xb2\x90\x85,d\xf9?'
p423
tp424
Rp425
ag2
(g6
S'j\x1e\xe4\xae\x9f-\xf6?'
p426
tp427
Rp428
ag2
(g6
S'\x82\xb9v`\xae\x1d\xf8?'
p429
tp430
Rp431
ag2
(g6
S'/\xa7\xe0\xe5\x14\xbc\xf8?'
p432
tp433
Rp434
ag2
(g6
S'\t\t\t\t\t\t\xf9?'
p435
tp436
Rp437
ag2
(g6
S'5\xc2rO#,\xf7?'
p438
tp439
Rp440
ag2
(g6
S'\x9b%\xc6\xa7L;\xf7?'
p441
tp442
Rp443
ag2
(g6
S'\x82\xbdcj`\xef\xf8?'
p444
tp445
Rp446
ag2
(g6
S'\x9a\x99\x99\x99\x99\x99\xf9?'
p447
tp448
Rp449
ag2
(g6
S'\x00\x00\x00\x00\x00\x00\xfd?'
p450
tp451
Rp452
ag2
(g6
S'\n\xd7\xa3p=\n\xfb?'
p453
tp454
Rp455
ag2
(g6
S'm\xb2\xc9&\x9bl\xf2?'
p456
tp457
Rp458
ag2
(g6
S'6\xea;\x1b\xf5\x9d\xfd?'
p459
tp460
Rp461
ag2
(g6
S'P\x96\xc0\xa6\xfdd\xf9?'
p462
tp463
Rp464
ag2
(g6
S'\x9e\xd8\x89\x9d\xd8\x89\xed?'
p465
tp466
Rp467
ag2
(g6
S'\xe7e\x11\x9f@*\xf9?'
p468
tp469
Rp470
ag2
(g6
S'\x06\x91\x07\xae\xa2\x9d\xf9?'
p471
tp472
Rp473
ag2
(g6
S'jW\xa2v%j\xf7?'
p474
tp475
Rp476
ag2
(g6
S'\x00\x00\x00\x00\x00\x00\xf8?'
p477
tp478
Rp479
ag2
(g6
S'Lg1\x9d\xc5t\xf6?'
p480
tp481
Rp482
ag2
(g6
S'\xcd\x13j\x01c\x12\xf7?'
p483
tp484
Rp485
ag2
(g6
S'\x8a\x9d\xd8\x89\x9d\xd8\xf5?'
p486
tp487
Rp488
ag2
(g6
S'UUUUUU\xf3?'
p489
tp490
Rp491
ag2
(g6
S'\xce\xd6\xa1\xdfl\x1d\xfa?'
p492
tp493
Rp494
ag2
(g6
S'\xfcjL\xa4\x07*\xf7?'
p495
tp496
Rp497
ag2
(g6
S'\x88\x87\x87\x87\x87\x87\xf7?'
p498
tp499
Rp500
ag2
(g6
S'\x7f\x96\xf3g9\x7f\xf6?'
p501
tp502
Rp503
ag2
(g6
S'L\x91\xcf\xba\xc1\x14\xf9?'
p504
tp505
Rp506
ag2
(g6
S'(\xaf\xa1\xbc\x86\xf2\xea?'
p507
tp508
Rp509
ag2
(g6
S'\x91\x85,d!\x0b\xf9?'
p510
tp511
Rp512
ag2
(g6
S'\xe9\xa2\x8b.\xba\xe8\xf2?'
p513
tp514
Rp515
ag2
(g6
S'\x05yJ\x90\xa7\x04\xf9?'
p516
tp517
Rp518
ag2
(g6
S'\xa3\x8b.\xba\xe8\xa2\xfb?'
p519
tp520
Rp521
ag2
(g6
S'J\x9f\xf4I\x9f\xf4\xf9?'
p522
tp523
Rp524
ag2
(g6
S'\xef\xee\xee\xee\xee\xee\xfa?'
p525
tp526
Rp527
ag2
(g6
S'\xc2rO#,\xf7\xf4?'
p528
tp529
Rp530
ag2
(g6
S'\x1b\xcak(\xaf\xa1\xf8?'
p531
tp532
Rp533
ag2
(g6
S'\xa8\xf5+\x05j\xfd\xfa?'
p534
tp535
Rp536
ag2
(g6
S'\xe2\xe1\xe1\xe1\xe1\xe1\xf9?'
p537
tp538
Rp539
ag2
(g6
S'\x90\x06i\x90\x06i\xf8?'
p540
tp541
Rp542
ag2
(g6
S'\xea\x94?\xea\x94?\xfa?'
p543
tp544
Rp545
ag2
(g6
S'\xd0\x17\xf4\x05}A\xf7?'
p546
tp547
Rp548
ag2
(g6
S'\xab\xaa\xaa\xaa\xaa\xaa\xfa?'
p549
tp550
Rp551
ag2
(g6
S'#>\x81Tr^\xf6?'
p552
tp553
Rp554
ag2
(g6
S'%I\x92$I\x92\xf8?'
p555
tp556
Rp557
ag2
(g6
S'\xb7\xf0\xab1\x91\x1e\xf8?'
p558
tp559
Rp560
ag2
(g6
S'\r\xe55\x94\xd7P\xee?'
p561
tp562
Rp563
ag2
(g6
S'\t\xf2\x94 O\t\xfa?'
p564
tp565
Rp566
ag2
(g6
S'\x9a\x99\x99\x99\x99\x99\xf9?'
p567
tp568
Rp569
ag2
(g6
S'\xd9\xb2e\xcb\x96-\xfb?'
p570
tp571
Rp572
ag2
(g6
S'?~\xfc\xf8\xf1\xe3\xf7?'
p573
tp574
Rp575
ag2
(g6
S'\xc4F:l\xa4\xc3\xf6?'
p576
tp577
Rp578
ag2
(g6
S'\x9d\xc5t\x16\xd3Y\xfc?'
p579
tp580
Rp581
ag2
(g6
S'%I\x92$I\x92\xfc?'
p582
tp583
Rp584
ag2
(g6
S'ffffff\xf6?'
p585
tp586
Rp587
ag2
(g6
S'\xd4w6\xea;\x1b\xfd?'
p588
tp589
Rp590
ag2
(g6
S'\xb7m\xdb\xb6m\xdb\xf6?'
p591
tp592
Rp593
ag2
(g6
S'\r\xdc"\xa0\x07\xab\xf9?'
p594
tp595
Rp596
ag2
(g6
S'pX\xfb\x86\xb5o\xf8?'
p597
tp598
Rp599
ag2
(g6
S'\xf2V\xf69\xa4&\xf8?'
p600
tp601
Rp602
ag2
(g6
S'\xcd\x0f\x8b\x94\x81\xa7\xfb?'
p603
tp604
Rp605
ag2
(g6
S'\xef\xee\xee\xee\xee\xee\xf6?'
p606
tp607
Rp608
ag2
(g6
S'\xa5\xee\xcbc+\x82\xf6?'
p609
tp610
Rp611
ag2
(g6
S'\xab\xaa\xaa\xaa\xaa\xaa\xf6?'
p612
tp613
Rp614
ag2
(g6
S'\x94\xd7P^Cy\xf5?'
p615
tp616
Rp617
ag2
(g6
S'\x00\x00\x00\x00\x00\x80\xf2?'
p618
tp619
Rp620
ag2
(g6
S'\xa3\x8b.\xba\xe8\xa2\xf5?'
p621
tp622
Rp623
ag2
(g6
S"e\xfcv\xa9'\xe3\xf7?"
p624
tp625
Rp626
ag2
(g6
S'\x92$I\x92$I\xf2?'
p627
tp628
Rp629
ag2
(g6
S'\xdb\xb6m\xdb\xb6m\xf7?'
p630
tp631
Rp632
ag2
(g6
S'\xb9\x91\x1b\xb9\x91\x1b\xf9?'
p633
tp634
Rp635
ag2
(g6
S'\x1e\x1e\x1e\x1e\x1e\x1e\xf6?'
p636
tp637
Rp638
ag2
(g6
S'd!\x0bY\xc8B\xfa?'
p639
tp640
Rp641
ag2
(g6
S'>\x06\xe7cp>\xf6?'
p642
tp643
Rp644
ag2
(g6
S'iiiiii\xf9?'
p645
tp646
Rp647
ag2
(g6
S'\xe3\x052)^ \xfb?'
p648
tp649
Rp650
ag2
(g6
S'333333\xf3?'
p651
tp652
Rp653
ag2
(g6
S'6\xea;\x1b\xf5\x9d\xfd?'
p654
tp655
Rp656
ag2
(g6
S'\x0f\x0f\x0f\x0f\x0f\x0f\xf7?'
p657
tp658
Rp659
ag2
(g6
S'\xea\xbe<\xb6"h\xf8?'
p660
tp661
Rp662
ag2
(g6
S'\x858+?!\xce\xfa?'
p663
tp664
Rp665
ag2
(g6
S'l\x0e$Zas\xf8?'
p666
tp667
Rp668
ag2
(g6
S'h\xdd`\x8a|\xd6\xfd?'
p669
tp670
Rp671
ag2
(g6
S'1\x0c\xc30\x0c\xc3\xf0?'
p672
tp673
Rp674
ag2
(g6
S'\xab\xaa\xaa\xaa\xaa\xaa\xfe?'
p675
tp676
Rp677
ag2
(g6
S'\xab\xaa\xaa\xaa\xaa\xaa\xf2?'
p678
tp679
Rp680
ag2
(g6
S'F\x17]t\xd1E\xf7?'
p681
tp682
Rp683
ag2
(g6
S'UUUUUU\xf5?'
p684
tp685
Rp686
ag2
(g6
S'C\x16\xb2\x90\x85,\x00@'
p687
tp688
Rp689
ag2
(g6
S'\x05\x05\x05\x05\x05\x05\xf5?'
p690
tp691
Rp692
ag2
(g6
S'Ws5Ws5\xf7?'
p693
tp694
Rp695
ag2
(g6
S'\x19c\x8c1\xc6\x18\xf3?'
p696
tp697
Rp698
ag2
(g6
S'=\x19\xbf]\xea\xc9\xf8?'
p699
tp700
Rp701
ag2
(g6
S'9\x8e\xe38\x8e\xe3\xf0?'
p702
tp703
Rp704
ag2
(g6
S'\xd1^B{\t\xed\xf5?'
p705
tp706
Rp707
ag2
(g6
S'\xe2\xe1\xe1\xe1\xe1\xe1\xf1?'
p708
tp709
Rp710
ag2
(g6
S'\xc2rO#,\xf7\xf4?'
p711
tp712
Rp713
ag2
(g6
S'j\x84\xe5\x9eFX\xfe?'
p714
tp715
Rp716
ag2
(g6
S'\xcd\xcc\xcc\xcc\xcc\xcc\xf4?'
p717
tp718
Rp719
ag2
(g6
S'.\xd8\x82-\xd8\x82\xfd?'
p720
tp721
Rp722
ag2
(g6
S'z\xa0rv\x0b\xbf\xfa?'
p723
tp724
Rp725
ag2
(g6
S'\xd5\x04\xe3\xad\xecs\xf8?'
p726
tp727
Rp728
ag2
(g6
S'\xaf\xa1\xbc\x86\xf2\x1a\xfa?'
p729
tp730
Rp731
ag2
(g6
S'\x8b\x9b0\xbf\xab\xc5\xf5?'
p732
tp733
Rp734
ag2
(g6
S']t\xd1E\x17]\xf4?'
p735
tp736
Rp737
ag2
(g6
S'1b\xc4\x88\x11#\xf6?'
p738
tp739
Rp740
ag2
(g6
S'\x95RJ)\xa5\x94\xf2?'
p741
tp742
Rp743
ag2
(g6
S'B#\xef\xfc-N\xfb?'
p744
tp745
Rp746
ag2
(g6
S'\xc6$\x0e\xde\xb7F\xf6?'
p747
tp748
Rp749
ag2
(g6
S'\x13\xdaKh/\xa1\xfd?'
p750
tp751
Rp752
ag2
(g6
S'\x88\x87\x87\x87\x87\x87\xf3?'
p753
tp754
Rp755
ag2
(g6
S'Q^Cy\r\xe5\xf5?'
p756
tp757
Rp758
ag2
(g6
S'UUUUUU\xf5?'
p759
tp760
Rp761
ag2
(g6
S'\xb7m\xdb\xb6m\xdb\xf6?'
p762
tp763
Rp764
ag2
(g6
S'\xab\xaa\xaa\xaa\xaa\xaa\xf6?'
p765
tp766
Rp767
ag2
(g6
S'p>\x06\xe7cp\xf6?'
p768
tp769
Rp770
ag2
(g6
S'/\xba\xe8\xa2\x8b.\xfa?'
p771
tp772
Rp773
ag2
(g6
S'2\xc6\x18c\x8c1\xf6?'
p774
tp775
Rp776
ag2
(g6
S'^N\xc1\xcb)x\xf5?'
p777
tp778
Rp779
ag2
(g6
S'\x92$I\x92$I\xf8?'
p780
tp781
Rp782
ag2
(g6
S'v]\xd7u]\xd7\xf5?'
p783
tp784
Rp785
ag2
(g6
S'%I\x92$I\x92\xf8?'
p786
tp787
Rp788
ag2
(g6
S'\x83)\xf2Y7\x98\xfa?'
p789
tp790
Rp791
ag2
(g6
S'z\xd3\x9b\xde\xf4\xa6\xf7?'
p792
tp793
Rp794
ag2
(g6
S'\x9a\x99\x99\x99\x99\x99\xfd?'
p795
tp796
Rp797
ag2
(g6
S'\n\xc6[\xd9\xe7\x90\xfa?'
p798
tp799
Rp800
ag2
(g6
S'\xea\xd6\xfc\xb0H\x19\xf8?'
p801
tp802
Rp803
ag2
(g6
S'""""""\xf6?'
p804
tp805
Rp806
ag2
(g6
S'\xb4\x97\xd0^B{\xf5?'
p807
tp808
Rp809
ag2
(g6
S'\xbe\xf7\xde{\xef\xbd\xfb?'
p810
tp811
Rp812
ag2
(g6
S'\xd4\x15uE]Q\xf7?'
p813
tp814
Rp815
ag2
(g6
S'\xc85\x11\xc85\x11\xf8?'
p816
tp817
Rp818
ag2
(g6
S'ffffff\xf6?'
p819
tp820
Rp821
ag2
(g6
S'\x9d\x97E|\x02\xa9\xf4?'
p822
tp823
Rp824
ag2
(g6
S'\xc5N\xec\xc4N\xec\xf8?'
p825
tp826
Rp827
ag2
(g6
S'ffffff\xf6?'
p828
tp829
Rp830
ag2
(g6
S'\xa4&\x18oe\x9f\xf3?'
p831
tp832
Rp833
ag2
(g6
S'\xa0Q\xe2g\x94\xf8\xf9?'
p834
tp835
Rp836
ag2
(g6
S'\x9aD\xef\x99D\xef\xf9?'
p837
tp838
Rp839
ag2
(g6
S'\x00\x00\x00\x00\x00\x00\xf9?'
p840
tp841
Rp842
ag2
(g6
S'b\x0es\x98\xc3\x1c\xf6?'
p843
tp844
Rp845
ag2
(g6
S'KKKKKK\xf3?'
p846
tp847
Rp848
ag2
(g6
S'ffffff\xf6?'
p849
tp850
Rp851
ag2
(g6
S'\x88\x87\x87\x87\x87\x87\xf7?'
p852
tp853
Rp854
ag2
(g6
S'\xab\xaa\xaa\xaa\xaa\xaa\xfa?'
p855
tp856
Rp857
ag2
(g6
S'1\x0c\xc30\x0c\xc3\xf8?'
p858
tp859
Rp860
ag2
(g6
S'C\x16\xb2\x90\x85,\xf4?'
p861
tp862
Rp863
ag2
(g6
S'&\xb0i?Y\x02\xfb?'
p864
tp865
Rp866
ag2
(g6
S'MYS\xd6\x945\xf5?'
p867
tp868
Rp869
ag2
(g6
S'\x8e\xe38\x8e\xe38\xf6?'
p870
tp871
Rp872
ag2
(g6
S'\x00\x00\x00\x00\x00\x00\xfa?'
p873
tp874
Rp875
ag2
(g6
S'0r\x86\x05\x97\xca\xf6?'
p876
tp877
Rp878
ag2
(g6
S'\x0ec\xb5\xf5\xb7\x07\xf6?'
p879
tp880
Rp881
ag2
(g6
S'ffffff\xf5?'
p882
tp883
Rp884
ag2
(g6
S'\x0e\xa9\t\xc6[\xd9\xf7?'
p885
tp886
Rp887
ag2
(g6
S'\x00\x00\x00\x00\x00\x00\xf8?'
p888
tp889
Rp890
ag2
(g6
S'\xb1\xd2S\x0b+=\xf5?'
p891
tp892
Rp893
ag2
(g6
S'\x97\x96\x96\x96\x96\x96\xf6?'
p894
tp895
Rp896
ag2
(g6
S'\x1c\xd6\xbea\xed\x1b\xf6?'
p897
tp898
Rp899
ag2
(g6
S'UUUUUU\xf9?'
p900
tp901
Rp902
ag2
(g6
S'zja\xa5\xa7\x16\xf6?'
p903
tp904
Rp905
ag2
(g6
S'\xa8\xb8d\x08\xd6\xd1\xf6?'
p906
tp907
Rp908
ag2
(g6
S'\xc4Y\xf9\tqV\xfe?'
p909
tp910
Rp911
ag2
(g6
S'Y\xc8B\x16\xb2\x90\xf5?'
p912
tp913
Rp914
ag2
(g6
S'c\x8c1\xc6\x18c\xf8?'
p915
tp916
Rp917
ag2
(g6
S"'\xddeL\xf9:\xfc?"
p918
tp919
Rp920
ag2
(g6
S'\x1c\xc7q\x1c\xc7q\xfc?'
p921
tp922
Rp923
ag2
(g6
S'\x88\x87\x87\x87\x87\x87\xf7?'
p924
tp925
Rp926
ag2
(g6
S'\xab\xaa\xaa\xaa\xaa\xaa\xfa?'
p927
tp928
Rp929
ag2
(g6
S'\x12oF\xbc\x19\xf1\xf6?'
p930
tp931
Rp932
ag2
(g6
S'\x9e\xd8\x89\x9d\xd8\x89\xf5?'
p933
tp934
Rp935
ag2
(g6
S'[\xb0\x05[\xb0\x05\xfb?'
p936
tp937
Rp938
ag2
(g6
S'\xc4\x1dqG\xdc\x11\xf7?'
p939
tp940
Rp941
ag2
(g6
S'6\x94\xd7P^C\xf9?'
p942
tp943
Rp944
ag2
(g6
S'\xc5W|\xc5W|\xf5?'
p945
tp946
Rp947
ag2
(g6
S"'9\xb0t\x92\x03\xfb?"
p948
tp949
Rp950
ag2
(g6
S'A\xe5\xec\x16~5\xf6?'
p951
tp952
Rp953
ag2
(g6
S'\x11B\x08!\x84\x10\xf2?'
p954
tp955
Rp956
ag2
(g6
S'\x1cL\x91\xcf\xba\xc1\xf4?'
p957
tp958
Rp959
ag2
(g6
S'S\xd6\x945eM\xf9?'
p960
tp961
Rp962
ag2
(g6
S'\xe1Wc"=P\xf9?'
p963
tp964
Rp965
ag2
(g6
S'Pq\xc9\x10\xac\xa3\xf5?'
p966
tp967
Rp968
ag2
(g6
S'(\xaf\xa1\xbc\x86\xf2\xfa?'
p969
tp970
Rp971
ag2
(g6
S'\n\xfdI\xc6\xa2\x1a\xf6?'
p972
tp973
Rp974
ag2
(g6
S'\x1f\x85\xebQ\xb8\x1e\xf5?'
p975
tp976
Rp977
ag2
(g6
S'\xa5!\xe7>\xbb\x80\xf8?'
p978
tp979
Rp980
ag2
(g6
S'\xd8\xbaBs;\x95\xf7?'
p981
tp982
Rp983
ag2
(g6
S'""""""\xfa?'
p984
tp985
Rp986
ag2
(g6
S"'vb'vb\xfb?"
p987
tp988
Rp989
ag2
(g6
S'\xdb\x95\xa8]\x89\xda\xf5?'
p990
tp991
Rp992
ag2
(g6
S'\x06[\xb0\x05[\xb0\xf5?'
p993
tp994
Rp995
ag2
(g6
S'\x91\xcb\x8a\x81\x12\xde\xf8?'
p996
tp997
Rp998
ag2
(g6
S'\xbav`\xae\x1d\x98\xfb?'
p999
tp1000
Rp1001
ag2
(g6
S'x\xba5?,R\xf6?'
p1002
tp1003
Rp1004
ag2
(g6
S'((((((\xf8?'
p1005
tp1006
Rp1007
ag2
(g6
S'\x00\x00\x00\x00\x00\x00\xf1?'
p1008
tp1009
Rp1010
ag2
(g6
S'\xe6\xb1\x15A\xc3I\xf5?'
p1011
tp1012
Rp1013
ag2
(g6
S'<\xe2\x8e\xb8#\xee\xf8?'
p1014
tp1015
Rp1016
ag2
(g6
S'\x17l\xc1\x16l\xc1\xf6?'
p1017
tp1018
Rp1019
ag2
(g6
S'\xab\xaa\xaa\xaa\xaa\xaa\xf2?'
p1020
tp1021
Rp1022
ag2
(g6
S'6\xbe\x19Z\xbb\x0f\xf7?'
p1023
tp1024
Rp1025
ag2
(g6
S'\xeb\xec\x8b\xa8\xd6\xd9\xf7?'
p1026
tp1027
Rp1028
ag2
(g6
S'%I\x92$I\x92\xf4?'
p1029
tp1030
Rp1031
ag2
(g6
S'\xca\x15\xc4\xe4\nb\xfa?'
p1032
tp1033
Rp1034
ag2
(g6
S'*\xa32*\xa32\xfa?'
p1035
tp1036
Rp1037
ag2
(g6
S'9\x05/\xa7\xe0\xe5\xf4?'
p1038
tp1039
Rp1040
ag2
(g6
S'\xab\xaa\xaa\xaa\xaa\xaa\xfa?'
p1041
tp1042
Rp1043
ag2
(g6
S'\xa1\xb8\x15\x8a[\xa1\xf8?'
p1044
tp1045
Rp1046
ag2
(g6
S'\x9e\xd8\x89\x9d\xd8\x89\xfd?'
p1047
tp1048
Rp1049
ag2
(g6
S'v\xd9e\x97]v\xf9?'
p1050
tp1051
Rp1052
ag2
(g6
S'Lh/\xa1\xbd\x84\xf6?'
p1053
tp1054
Rp1055
ag2
(g6
S"'vb'vb\xf9?"
p1056
tp1057
Rp1058
ag2
(g6
S'\xedI\xbe\x8f\xd5\xec\xf9?'
p1059
tp1060
Rp1061
ag2
(g6
S'\x87\xf2\x1a\xcak(\xf7?'
p1062
tp1063
Rp1064
ag2
(g6
S'\xbdz\xf5\xea\xd5\xab\xf7?'
p1065
tp1066
Rp1067
ag2
(g6
S'\x14\xaeG\xe1z\x14\xfa?'
p1068
tp1069
Rp1070
ag2
(g6
S'\x99\xcd\xa5C\rv\xf7?'
p1071
tp1072
Rp1073
ag2
(g6
S'a\x8a|\xd6\r\xa6\xf8?'
p1074
tp1075
Rp1076
ag2
(g6
S'\x00\x00\x00\x00\x00\x00\xf0?'
p1077
tp1078
Rp1079
ag2
(g6
S'\x11\x11\x11\x11\x11\x11\xf9?'
p1080
tp1081
Rp1082
ag2
(g6
S'\x1d\xd4A\x1d\xd4A\xf9?'
p1083
tp1084
Rp1085
ag2
(g6
S'EH\xb5\xac\x03m\xf7?'
p1086
tp1087
Rp1088
ag2
(g6
S'=\x19\xbf]\xea\xc9\xf8?'
p1089
tp1090
Rp1091
ag2
(g6
S'\xab\xaa\xaa\xaa\xaa\xaa\xf6?'
p1092
tp1093
Rp1094
ag2
(g6
S'\xab\xaa\xaa\xaa\xaa\xaa\xfa?'
p1095
tp1096
Rp1097
ag2
(g6
S'\xc4w\x10\xdfA|\xf7?'
p1098
tp1099
Rp1100
ag2
(g6
S'\x9a\x99\x99\x99\x99\x99\xf9?'
p1101
tp1102
Rp1103
ag2
(g6
S'O\xec\xc4N\xec\xc4\xf2?'
p1104
tp1105
Rp1106
ag2
(g6
S'\x7f^eqF\xbb\xf7?'
p1107
tp1108
Rp1109
ag2
(g6
S'z\x9e\xe7y\x9e\xe7\xf9?'
p1110
tp1111
Rp1112
ag2
(g6
S'\x01\xad\x04\xb4\x12\xd0\xfa?'
p1113
tp1114
Rp1115
ag2
(g6
S'\x86,d!\x0bY\xf8?'
p1116
tp1117
Rp1118
ag2
(g6
S'\xb8\x8f\xe0>\x82\xfb\xf8?'
p1119
tp1120
Rp1121
ag2
(g6
S'\x05R\xc9yY\xc4\xf7?'
p1122
tp1123
Rp1124
ag2
(g6
S'?\xe9\x93>\xe9\x93\xf6?'
p1125
tp1126
Rp1127
ag2
(g6
S'\x8e\xdc\xc8\x8d\xdc\xc8\xfd?'
p1128
tp1129
Rp1130
ag2
(g6
S'br\x051\xb9\x82\xf8?'
p1131
tp1132
Rp1133
ag2
(g6
S'\x92$I\x92$I\xf7?'
p1134
tp1135
Rp1136
ag2
(g6
S'\xd3\xd2\xd2\xd2\xd2\xd2\xf2?'
p1137
tp1138
Rp1139
ag2
(g6
S'=\n\xd7\xa3p=\xfa?'
p1140
tp1141
Rp1142
ag2
(g6
S'\x00\x00\x00\x00\x00\x00\xf8?'
p1143
tp1144
Rp1145
ag2
(g6
S'\xdd`\x8a|\xd6\r\xf6?'
p1146
tp1147
Rp1148
ag2
(g6
S'UUUUUU\xfa?'
p1149
tp1150
Rp1151
ag2
(g6
S'a\x1dm\xde\xa7\xb8\xf4?'
p1152
tp1153
Rp1154
ag2
(g6
S'\x11\xb8\xb1\x0cJ\x85\xf9?'
p1155
tp1156
Rp1157
ag2
(g6
S'\xb7m\xdb\xb6m\xdb\xf6?'
p1158
tp1159
Rp1160
ag2
(g6
S'#,\xf74\xc2r\xf7?'
p1161
tp1162
Rp1163
ag2
(g6
S"\xa0\x10g\xe5'\xc4\xf9?"
p1164
tp1165
Rp1166
ag2
(g6
S'\xd5\xc2JO-\xac\xf4?'
p1167
tp1168
Rp1169
ag2
(g6
S'\x85B\xa1P(\x14\xfa?'
p1170
tp1171
Rp1172
ag2
(g6
S'\x1f\xa8\x9c\xdd\xc2\xaf\xf6?'
p1173
tp1174
Rp1175
ag2
(g6
S'%I\x92$I\x92\xf4?'
p1176
tp1177
Rp1178
ag2
(g6
S'\x16\xb2\x90\x85,d\xf1?'
p1179
tp1180
Rp1181
ag2
(g6
S'UUUUUU\xf5?'
p1182
tp1183
Rp1184
ag2
(g6
S'\xaeG\xe1z\x14\xae\xf7?'
p1185
tp1186
Rp1187
ag2
(g6
S'xxxxxx\xf8?'
p1188
tp1189
Rp1190
ag2
(g6
S'\xca&\x9bl\xb2\xc9\xf6?'
p1191
tp1192
Rp1193
ag2
(g6
S'\xa3\xbe\xb3Q\xdf\xd9\xf8?'
p1194
tp1195
Rp1196
ag2
(g6
S'Y1P\xc2\x1bM\xf5?'
p1197
tp1198
Rp1199
ag2
(g6
S'\xd3\x180\x8d\x01\xd3\xf8?'
p1200
tp1201
Rp1202
ag2
(g6
S'\xb9d\x08\xd6\xd1\xe6\xf5?'
p1203
tp1204
Rp1205
ag2
(g6
S'a\x1dm\xde\xa7\xb8\xf4?'
p1206
tp1207
Rp1208
ag2
(g6
S'\x15*T\xa8P\xa1\xfa?'
p1209
tp1210
Rp1211
ag2
(g6
S'sO#,\xf74\xf2?'
p1212
tp1213
Rp1214
ag2
(g6
S'\xb4\x97\xd0^B{\xf9?'
p1215
tp1216
Rp1217
ag2
(g6
S'\xe6[\xbe\xe5[\xbe\xf5?'
p1218
tp1219
Rp1220
ag2
(g6
S'\xc6\xca\xf0\x8d(0\xf9?'
p1221
tp1222
Rp1223
ag2
(g6
S'\x9a\x99\x99\x99\x99\x99\xfb?'
p1224
tp1225
Rp1226
ag2
(g6
S'\x92\x1b\xb9\x91\x1b\xb9\xf9?'
p1227
tp1228
Rp1229
ag2
(g6
S'\x81#EC\xfcq\xfb?'
p1230
tp1231
Rp1232
ag2
(g6
S';\xb1\x13;\xb1\x13\xf7?'
p1233
tp1234
Rp1235
ag2
(g6
S'\x9a\x99\x99\x99\x99\x99\xfd?'
p1236
tp1237
Rp1238
ag2
(g6
S'\\\xf3\xc3"e\xe0\xf9?'
p1239
tp1240
Rp1241
ag2
(g6
S'\xc7q\x1c\xc7q\x1c\xf7?'
p1242
tp1243
Rp1244
ag2
(g6
S'UUUUUU\xf5?'
p1245
tp1246
Rp1247
ag2
(g6
S'\xd3\x91=\x03Q\xe9\xf8?'
p1248
tp1249
Rp1250
ag2
(g6
S'\xdb\xb6m\xdb\xb6m\xfb?'
p1251
tp1252
Rp1253
ag2
(g6
S'%I\x92$I\x92\xf4?'
p1254
tp1255
Rp1256
ag2
(g6
S'\n\xd7\xa3p=\n\xf7?'
p1257
tp1258
Rp1259
ag2
(g6
S'\x89\x88\x88\x88\x88\x88\xf8?'
p1260
tp1261
Rp1262
ag2
(g6
S'\xfdI\xc6\xa2\x1af\xf7?'
p1263
tp1264
Rp1265
ag2
(g6
S'\xaf\xa1\xbc\x86\xf2\x1a\xfa?'
p1266
tp1267
Rp1268
ag2
(g6
S'\x99\x1a\xd8;\xa6\x06\xf6?'
p1269
tp1270
Rp1271
ag2
(g6
S'\x88\x87\x87\x87\x87\x87\xff?'
p1272
tp1273
Rp1274
ag2
(g6
S'\xd6\xd1\xe6}\x8aK\xf6?'
p1275
tp1276
Rp1277
ag2
(g6
S'\x9fFX\xeei\x84\xf5?'
p1278
tp1279
Rp1280
ag2
(g6
S'\xc2\xf9\x18\x9c\x8f\xc1\xf9?'
p1281
tp1282
Rp1283
ag2
(g6
S'\x86j:\xe6\x12\xe1\xf9?'
p1284
tp1285
Rp1286
ag2
(g6
S'&\xd2\x03\x95\xb3[\xf8?'
p1287
tp1288
Rp1289
ag2
(g6
S'\xd1E\x17]t\xd1\xf5?'
p1290
tp1291
Rp1292
ag2
(g6
S'ffffff\xf6?'
p1293
tp1294
Rp1295
ag2
(g6
S'E>\xeb\x06S\xe4\xf3?'
p1296
tp1297
Rp1298
ag2
(g6
S'\xb3\xcf!5\xc1x\xfb?'
p1299
tp1300
Rp1301
ag2
(g6
S'\x00\x00\x00\x00\x00\x00\xf2?'
p1302
tp1303
Rp1304
ag2
(g6
S'X>\x11\xb3\xb9t\xf8?'
p1305
tp1306
Rp1307
ag2
(g6
S'sO#,\xf74\xfa?'
p1308
tp1309
Rp1310
ag2
(g6
S'\x01\x85Q\x9d&\x07\xf9?'
p1311
tp1312
Rp1313
ag2
(g6
S'\x9c\x90\x92g\x19\xd1\xf7?'
p1314
tp1315
Rp1316
ag2
(g6
S'\xc6\x18c\x8c1\xc6\xf8?'
p1317
tp1318
Rp1319
ag2
(g6
S'\xccc+\x82\x86\x93\xfa?'
p1320
tp1321
Rp1322
ag2
(g6
S'\xe5\x17K~\xb1\xe4\xf7?'
p1323
tp1324
Rp1325
ag2
(g6
S'U\xcc\xad\xceH\xc5\xfc?'
p1326
tp1327
Rp1328
ag2
(g6
S'iiiiii\xf9?'
p1329
tp1330
Rp1331
ag2
(g6
S'\xbd\x86\xf2\x1a\xcak\xf8?'
p1332
tp1333
Rp1334
ag2
(g6
S'\x0fl\xf4\xae\xc8|\xf9?'
p1335
tp1336
Rp1337
ag2
(g6
S'y+\xfb\x1cR\x13\xfc?'
p1338
tp1339
Rp1340
ag2
(g6
S'KKKKKK\xf3?'
p1341
tp1342
Rp1343
ag2
(g6
S'Z\xa35Z\xa35\xfa?'
p1344
tp1345
Rp1346
ag2
(g6
S'\xd2\xe6}\x8aK\x86\xf8?'
p1347
tp1348
Rp1349
ag2
(g6
S'\x86a\x18\x86a\x18\xf6?'
p1350
tp1351
Rp1352
ag2
(g6
S'.q\xea\xf7\xdc\x12\xf7?'
p1353
tp1354
Rp1355
ag2
(g6
S'\xc30\x0c\xc30\x0c\xf7?'
p1356
tp1357
Rp1358
ag2
(g6
S"\xa75\xdb'\xaa\x07\xfd?"
p1359
tp1360
Rp1361
ag2
(g6
S"j\xd8n\x96'\x91\xf9?"
p1362
tp1363
Rp1364
ag2
(g6
S'iiiiii\xf9?'
p1365
tp1366
Rp1367
ag2
(g6
S'\x13\xb5+Q\xbb\x12\xf5?'
p1368
tp1369
Rp1370
ag2
(g6
S'\x92$I\x92$I\xf6?'
p1371
tp1372
Rp1373
ag2
(g6
S'\n\xf3\xbbZ\xdc\x84\xf9?'
p1374
tp1375
Rp1376
ag2
(g6
S'\xa6\xb3\x98\xceb:\xf7?'
p1377
tp1378
Rp1379
ag2
(g6
S'\xd0\xcf\xcf\xcf\xcf\xcf\xf7?'
p1380
tp1381
Rp1382
ag2
(g6
S'O\xec\xc4N\xec\xc4\xf6?'
p1383
tp1384
Rp1385
ag2
(g6
S'33333\xb3\xf6?'
p1386
tp1387
Rp1388
ag2
(g6
S'/\xba\xe8\xa2\x8b.\xf2?'
p1389
tp1390
Rp1391
ag2
(g6
S'\x12\xeb\xd2c\xfe^\xfb?'
p1392
tp1393
Rp1394
ag2
(g6
S',\x88\xc9\x15\xc4\xe4\xf6?'
p1395
tp1396
Rp1397
ag2
(g6
S'%\xe7e\x11\x9f@\xfa?'
p1398
tp1399
Rp1400
ag2
(g6
S'\xe48\x8e\xe38\x8e\xf7?'
p1401
tp1402
Rp1403
ag2
(g6
S'\xa9\xfb\xf2\xd8\x8a\xa0\xf9?'
p1404
tp1405
Rp1406
ag2
(g6
S'\x0ek\xdf\xb0\xf6\r\xfb?'
p1407
tp1408
Rp1409
ag2
(g6
S'\x95RJ)\xa5\x94\xf2?'
p1410
tp1411
Rp1412
ag2
(g6
S'\x07uP\x07uP\xf7?'
p1413
tp1414
Rp1415
ag2
(g6
S'>\x06\xe7cp>\xf6?'
p1416
tp1417
Rp1418
ag2
(g6
S'9\x8e\xe38\x8e\xe3\xf6?'
p1419
tp1420
Rp1421
ag2
(g6
S'ffffff\xf6?'
p1422
tp1423
Rp1424
ag2
(g6
S'\xea\xa3\xd5$D\xf1\xf7?'
p1425
tp1426
Rp1427
ag2
(g6
S'\x9e\xe7y\x9e\xe7y\xfc?'
p1428
tp1429
Rp1430
ag2
(g6
S'\x00\x00\x00\x00\x00\x00\xfc?'
p1431
tp1432
Rp1433
ag2
(g6
S'`\xae\x1d\x98k\x07\xf6?'
p1434
tp1435
Rp1436
ag2
(g6
S'\xba\xe8\xa2\x8b.\xba\xf8?'
p1437
tp1438
Rp1439
ag2
(g6
S'L\x91\xcf\xba\xc1\x14\xf9?'
p1440
tp1441
Rp1442
ag2
(g6
S'\xe2\x8e\xb8#\xee\x88\xf7?'
p1443
tp1444
Rp1445
ag2
(g6
S'b\x10X9\xb4\xc8\xf6?'
p1446
tp1447
Rp1448
ag2
(g6
S'\xe6\x14\xbc\x9c\x82\x97\xf3?'
p1449
tp1450
Rp1451
ag2
(g6
S'\xe48\x8e\xe38\x8e\xf3?'
p1452
tp1453
Rp1454
ag2
(g6
S'~5&\xd2\x03\x95\xf3?'
p1455
tp1456
Rp1457
ag2
(g6
S'ffffff\xf6?'
p1458
tp1459
Rp1460
ag2
(g6
S'\x94\xd7P^Cy\xf9?'
p1461
tp1462
Rp1463
ag2
(g6
S'\x00\x00\x00\x00\x00\x00\xf8?'
p1464
tp1465
Rp1466
ag2
(g6
S'\xf3\xc6\x08&\xfa;\xf9?'
p1467
tp1468
Rp1469
ag2
(g6
S'UUUUU\xd5\xf8?'
p1470
tp1471
Rp1472
ag2
(g6
S'J\xa7\xe6A\xee\xfa\xf9?'
p1473
tp1474
Rp1475
ag2
(g6
S'\x16\xb2\x90\x85,d\xf9?'
p1476
tp1477
Rp1478
ag2
(g6
S'ffffff\xf6?'
p1479
tp1480
Rp1481
ag2
(g6
S'K\xad\xd4J\xad\xd4\xfa?'
p1482
tp1483
Rp1484
ag2
(g6
S'K\xda\x92\xb6\xa4-\xf9?'
p1485
tp1486
Rp1487
ag2
(g6
S'6\x94\xd7P^C\xf9?'
p1488
tp1489
Rp1490
ag2
(g6
S'\xab\xaa\xaa\xaa\xaa\xaa\xf2?'
p1491
tp1492
Rp1493
ag2
(g6
S'\x00\x00\x00\x00\x00\x00\xf8?'
p1494
tp1495
Rp1496
ag2
(g6
S'g\xb7\xf0\xab1\x91\xf6?'
p1497
tp1498
Rp1499
ag2
(g6
S'(\xaa\x07\x8d\xbc\xf3\xf7?'
p1500
tp1501
Rp1502
ag2
(g6
S'\xb3\xcf!5\xc1x\xf3?'
p1503
tp1504
Rp1505
ag2
(g6
S'UUUUUU\xf5?'
p1506
tp1507
Rp1508
ag2
(g6
S'\x0b,\xb0\xc0\x02\x0b\xfc?'
p1509
tp1510
Rp1511
ag2
(g6
S'E\xe6K\x13\x87\xb1\xfa?'
p1512
tp1513
Rp1514
ag2
(g6
S'o_Y\xbdK\x1e\xfc?'
p1515
tp1516
Rp1517
ag2
(g6
S'\xd8P^Cy\r\xf5?'
p1518
tp1519
Rp1520
ag2
(g6
S'\xbe\x84\xf6\x12\xdaK\xf8?'
p1521
tp1522
Rp1523
ag2
(g6
S'\xef\xcbc+\x82\x86\xf3?'
p1524
tp1525
Rp1526
ag2
(g6
S'ZZZZZZ\xfa?'
p1527
tp1528
Rp1529
ag2
(g6
S'\xaax\xaeY\x1dF\xf9?'
p1530
tp1531
Rp1532
ag2
(g6
S'uP\x07uP\x07\xf5?'
p1533
tp1534
Rp1535
ag2
(g6
S'\xed%\xb4\x97\xd0^\xfa?'
p1536
tp1537
Rp1538
ag2
(g6
S';\xc7\x1a\x89\x80\xf8\xf8?'
p1539
tp1540
Rp1541
ag2
(g6
S'\x0b\x84\x91v\xac@\xf8?'
p1542
tp1543
Rp1544
ag2
(g6
S'\x9c\x95\x9f\x10g\xe5\xf7?'
p1545
tp1546
Rp1547
ag2
(g6
S'\xd7Zk\xad\xb5\xd6\xf6?'
p1548
tp1549
Rp1550
ag2
(g6
S'O\t\xf2\x94 O\xf9?'
p1551
tp1552
Rp1553
ag2
(g6
S'\x85\xebQ\xb8\x1e\x85\xf7?'
p1554
tp1555
Rp1556
ag2
(g6
S'G\xf5\xf7y\x9bt\xf7?'
p1557
tp1558
Rp1559
ag2
(g6
S'xxxxxx\xf8?'
p1560
tp1561
Rp1562
ag2
(g6
S'\xd7rp\xb3_\x88\xf5?'
p1563
tp1564
Rp1565
ag2
(g6
S'\x00\x00\x00\x00\x00`\xf6?'
p1566
tp1567
Rp1568
ag2
(g6
S'i\x1f$\x03\xea\x99\xfa?'
p1569
tp1570
Rp1571
ag2
(g6
S'a\xe2\xfd\xc8i\xbe\xf6?'
p1572
tp1573
Rp1574
ag2
(g6
S'ffffff\xf6?'
p1575
tp1576
Rp1577
ag2
(g6
S'\x98\xc3\x1c\xe60\x87\xf9?'
p1578
tp1579
Rp1580
ag2
(g6
S'\xe9\x97~\xe9\x97~\xf9?'
p1581
tp1582
Rp1583
ag2
(g6
S'\x1b\xf5\x9d\x8d\xfa\xce\xf6?'
p1584
tp1585
Rp1586
ag2
(g6
S'\xe7\x9cs\xce9\xe7\xfc?'
p1587
tp1588
Rp1589
ag2
(g6
S'\xa4p=\n\xd7\xa3\xf8?'
p1590
tp1591
Rp1592
ag2
(g6
S'\x86,d!\x0bY\xf4?'
p1593
tp1594
Rp1595
ag2
(g6
S'\x84\x91v\xac@\x18\xf9?'
p1596
tp1597
Rp1598
ag2
(g6
S'\x96\xa8]\x89\xda\x95\xf8?'
p1599
tp1600
Rp1601
ag2
(g6
S'\t"\xad\x17\xb0\xcd\xf9?'
p1602
tp1603
Rp1604
ag2
(g6
S'\xa77\xbd\xe9Mo\xf6?'
p1605
tp1606
Rp1607
ag2
(g6
S'\xf4<\xcf\xf3<\xcf\xfb?'
p1608
tp1609
Rp1610
ag2
(g6
S'\xcf\x95\x07$\xeb\\\xf9?'
p1611
tp1612
Rp1613
ag2
(g6
S'UUUUUU\xf7?'
p1614
tp1615
Rp1616
ag2
(g6
S'\xd3S\x0b+=\xb5\xf8?'
p1617
tp1618
Rp1619
ag2
(g6
S'UUUUUU\xf1?'
p1620
tp1621
Rp1622
ag2
(g6
S'\x00\x00\x00\x00\x00\xc0\xfb?'
p1623
tp1624
Rp1625
ag2
(g6
S'\xf7A2\xa0\x9e\xa9\xfc?'
p1626
tp1627
Rp1628
ag2
(g6
S'\xc5N\xec\xc4N\xec\xf8?'
p1629
tp1630
Rp1631
ag2
(g6
S'O\t\xf2\x94 O\xf9?'
p1632
tp1633
Rp1634
ag2
(g6
S'\x1bC\xd3\x1d\xec\xb7\xfa?'
p1635
tp1636
Rp1637
ag2
(g6
S'L\x91\xcf\xba\xc1\x14\xf9?'
p1638
tp1639
Rp1640
ag2
(g6
S'\xd9~G\xaf\x8c\xed\xf7?'
p1641
tp1642
Rp1643
ag2
(g6
S'z\x90\xbb~\xb6X\xf9?'
p1644
tp1645
Rp1646
ag2
(g6
S'Z\x1dF\x99\x8a\xe7\xfa?'
p1647
tp1648
Rp1649
ag2
(g6
S'0\xde\xca>\x87\xd4\xf4?'
p1650
tp1651
Rp1652
ag2
(g6
S'|\xdd\xeb^\xf7\xba\xf7?'
p1653
tp1654
Rp1655
ag2
(g6
S'\x19\xbf]\xea\xc9\xf8\xf5?'
p1656
tp1657
Rp1658
ag2
(g6
S'\xf418\x1f\x83\xf3\xf5?'
p1659
tp1660
Rp1661
ag2
(g6
S'\xa2\xc7w\xe1 z\xfc?'
p1662
tp1663
Rp1664
ag2
(g6
S'\xae\x02\x82!\xd9"\xfa?'
p1665
tp1666
Rp1667
ag2
(g6
S'\xfa\x18\x9c\x8f\xc1\xf9\xf4?'
p1668
tp1669
Rp1670
ag2
(g6
S'\xc6\x18c\x8c1\xc6\xf8?'
p1671
tp1672
Rp1673
ag2
(g6
S'-d!\x0bY\xc8\xf6?'
p1674
tp1675
Rp1676
ag2
(g6
S'm\xb2\xc9&\x9bl\xfa?'
p1677
tp1678
Rp1679
ag2
(g6
S'\r\xec\x1dS\x03{\xf7?'
p1680
tp1681
Rp1682
ag2
(g6
S'eMYS\xd6\x94\xfd?'
p1683
tp1684
Rp1685
ag2
(g6
S'\x15\xcc\x92r@d\xf8?'
p1686
tp1687
Rp1688
ag2
(g6
S'iiiiii\xf9?'
p1689
tp1690
Rp1691
ag2
(g6
S',\xf74\xc2rO\xf3?'
p1692
tp1693
Rp1694
ag2
(g6
S'\xbe\xf7\xde{\xef\xbd\xf7?'
p1695
tp1696
Rp1697
ag2
(g6
S'B\xaae\x1dh\xbb\xf7?'
p1698
tp1699
Rp1700
ag2
(g6
S'd)\x93`W\xe1\xfb?'
p1701
tp1702
Rp1703
ag2
(g6
S'333333\xf9?'
p1704
tp1705
Rp1706
ag2
(g6
S'333333\xf8?'
p1707
tp1708
Rp1709
ag2
(g6
S'%I\x92$I\x92\xf4?'
p1710
tp1711
Rp1712
ag2
(g6
S':\xe7\x9cs\xce9\xf7?'
p1713
tp1714
Rp1715
ag2
(g6
S'\xd4\x15uE]Q\xf7?'
p1716
tp1717
Rp1718
ag2
(g6
S'\xb5\xba\xd3\xeaN\xab\xfb?'
p1719
tp1720
Rp1721
ag2
(g6
S'I\x92$I\x92$\xf5?'
p1722
tp1723
Rp1724
ag2
(g6
S'wwwwww\xfb?'
p1725
tp1726
Rp1727
ag2
(g6
S'm\xb2\xc9&\x9bl\xf6?'
p1728
tp1729
Rp1730
ag2
(g6
S'\xf1\x02\x99\x14/\x90\xf9?'
p1731
tp1732
Rp1733
ag2
(g6
S'u\xdebH\xe7-\xf6?'
p1734
tp1735
Rp1736
ag2
(g6
S'\x87\xf2\x1a\xcak(\xfb?'
p1737
tp1738
Rp1739
ag2
(g6
S'dj`\xef\x98\x1a\xf8?'
p1740
tp1741
Rp1742
ag2
(g6
S'\xc5N\xec\xc4N\xec\xf8?'
p1743
tp1744
Rp1745
ag2
(g6
S'\xb8\xb2\xcf!5\xc1\xf8?'
p1746
tp1747
Rp1748
ag2
(g6
S'\xbc\xbb\xbb\xbb\xbb\xbb\xf7?'
p1749
tp1750
Rp1751
ag2
(g6
S'\xa0Q\xe2g\x94\xf8\xf9?'
p1752
tp1753
Rp1754
ag2
(g6
S'\x14;\xb1\x13;\xb1\xfb?'
p1755
tp1756
Rp1757
ag2
(g6
S'P \x95\x9c\x97E\xfc?'
p1758
tp1759
Rp1760
ag2
(g6
S'\xa9\t\xc6[\xd9\xe7\xf8?'
p1761
tp1762
Rp1763
ag2
(g6
S'\xecQ\xb8\x1e\x85\xeb\xf9?'
p1764
tp1765
Rp1766
ag2
(g6
S'\x89\x88\x88\x88\x88\x88\xf8?'
p1767
tp1768
Rp1769
ag2
(g6
S'\xf7\xf6\xf6\xf6\xf6\xf6\xf6?'
p1770
tp1771
Rp1772
ag2
(g6
S'\x00\x00\x00\x00\x00\x00\xf8?'
p1773
tp1774
Rp1775
ag2
(g6
S'\x96eY\x96eY\xf6?'
p1776
tp1777
Rp1778
ag2
(g6
S'\x00\x00\x00\x00\x00\x00\xf8?'
p1779
tp1780
Rp1781
ag2
(g6
S'\x00\x00\x00\x00\x00\x00\xf0?'
p1782
tp1783
Rp1784
ag2
(g6
S'\x00\x00\x00\x00\x00\x00\xf5?'
p1785
tp1786
Rp1787
ag2
(g6
S"b'vb'v\xf2?"
p1788
tp1789
Rp1790
ag2
(g6
S'\x88\x87\x87\x87\x87\x87\xf7?'
p1791
tp1792
Rp1793
ag2
(g6
S'\xe8d\xfa*al\xf6?'
p1794
tp1795
Rp1796
ag2
(g6
S'K\xda\x92\xb6\xa4-\xf9?'
p1797
tp1798
Rp1799
ag2
(g6
S'\xf0\xc2A\xf4\xf8.\xfc?'
p1800
tp1801
Rp1802
ag2
(g6
S'\xb7m\xdb\xb6m\xdb\xfa?'
p1803
tp1804
Rp1805
ag2
(g6
S'\xd9\x89\x9d\xd8\x89\x9d\xf8?'
p1806
tp1807
Rp1808
ag2
(g6
S'\xc3\xf5(\\\x8f\xc2\xf5?'
p1809
tp1810
Rp1811
ag2
(g6
S'\x14;\xb1\x13;\xb1\xf7?'
p1812
tp1813
Rp1814
ag2
(g6
S'\x94\xba/\x8f\xad\x08\xfa?'
p1815
tp1816
Rp1817
ag2
(g6
S'6\x94\xd7P^C\xf9?'
p1818
tp1819
Rp1820
ag2
(g6
S'ffffff\xf6?'
p1821
tp1822
Rp1823
ag2
(g6
S'\x96eY\x96eY\xfa?'
p1824
tp1825
Rp1826
ag2
(g6
S'%I\x92$I\x92\xf4?'
p1827
tp1828
Rp1829
ag2
(g6
S'\xaeG\xe1z\x14\xae\xf7?'
p1830
tp1831
Rp1832
ag2
(g6
S'\x00\x00\x00\x00\x00\x00\xf8?'
p1833
tp1834
Rp1835
ag2
(g6
S'\xa3\x8b.\xba\xe8\xa2\xfb?'
p1836
tp1837
Rp1838
ag2
(g6
S'\x00\x00\x00\x00\x00@\xfa?'
p1839
tp1840
Rp1841
ag2
(g6
S'wwwwww\xf9?'
p1842
tp1843
Rp1844
ag2
(g6
S'!\x0bY\xc8B\x16\xf2?'
p1845
tp1846
Rp1847
ag2
(g6
S'g2Z\xbc\xf2\x89\xf8?'
p1848
tp1849
Rp1850
ag2
(g6
S'\xb1\x13;\xb1\x13;\xf9?'
p1851
tp1852
Rp1853
ag2
(g6
S'\x00\x00\x00\x00\x00\x00\xf8?'
p1854
tp1855
Rp1856
ag2
(g6
S']t\xd1E\x17]\xf8?'
p1857
tp1858
Rp1859
ag2
(g6
S'0\xd7\x0e\xcc\xb5\x03\xf3?'
p1860
tp1861
Rp1862
ag2
(g6
S'\xf5I\x9f\xf4I\x9f\xf8?'
p1863
tp1864
Rp1865
ag2
(g6
S'333333\xf9?'
p1866
tp1867
Rp1868
ag2
(g6
S'\x9a\x99\x99\x99\x99\x99\xf5?'
p1869
tp1870
Rp1871
ag2
(g6
S'\x8b\xb9\xd5\x19\xa9\x98\xfb?'
p1872
tp1873
Rp1874
ag2
(g6
S'\xd9\x89\x9d\xd8\x89\x9d\xfc?'
p1875
tp1876
Rp1877
ag2
(g6
S'$\x03\xea\x99\xcau\xf7?'
p1878
tp1879
Rp1880
ag2
(g6
S'\x89\x88\x88\x88\x88\x88\xf8?'
p1881
tp1882
Rp1883
ag2
(g6
S'o1\xa4\xf3\x16C\xfa?'
p1884
tp1885
Rp1886
ag2
(g6
S'\xb0\x14\xa8\xf5+\x05\xfa?'
p1887
tp1888
Rp1889
ag2
(g6
S'\x00\x00\x00\x00\x00\x00\xf8?'
p1890
tp1891
Rp1892
ag2
(g6
S'\xe5\xec\x16~5&\xfa?'
p1893
tp1894
Rp1895
ag2
(g6
S'\x17]t\xd1E\x17\xf5?'
p1896
tp1897
Rp1898
ag2
(g6
S'\xa9\xc0\x17W?\xe8\xf8?'
p1899
tp1900
Rp1901
ag2
(g6
S'\xd4\x9c\x04\xe2B\xcd\xf9?'
p1902
tp1903
Rp1904
ag2
(g6
S'\x11\x11\x11\x11\x11\x11\xf5?'
p1905
tp1906
Rp1907
ag2
(g6
S']y@\xb2\xce\x95\xf7?'
p1908
tp1909
Rp1910
ag2
(g6
S'\x81I\xa7\xe6A\xee\xfa?'
p1911
tp1912
Rp1913
ag2
(g6
S'\x00\x00\x00\x00\x00\x00\xfa?'
p1914
tp1915
Rp1916
ag2
(g6
S'\xab\xaa\xaa\xaa\xaa\xaa\xf2?'
p1917
tp1918
Rp1919
ag2
(g6
S'xxxxxx\xf8?'
p1920
tp1921
Rp1922
ag2
(g6
S'\x00\x00\x00\x00\x00\x00\xf1?'
p1923
tp1924
Rp1925
ag2
(g6
S'I\x92$I\x92$\xf7?'
p1926
tp1927
Rp1928
ag2
(g6
S'i\x9eP\x0b\x18\x93\xf8?'
p1929
tp1930
Rp1931
ag2
(g6
S'-\xeb@\xdb\xbdU\xfa?'
p1932
tp1933
Rp1934
ag2
(g6
S'J\xc6\xa2\x1af\x07\xf7?'
p1935
tp1936
Rp1937
ag2
(g6
S'\x87\xb5oX\xfb\x86\xf5?'
p1938
tp1939
Rp1940
ag2
(g6
S'<w\xee\xdc\xb9s\xf7?'
p1941
tp1942
Rp1943
ag2
(g6
S')\xa5\x94RJ)\xf5?'
p1944
tp1945
Rp1946
ag2
(g6
S'\xd0\x84?\x13\xfeL\xf8?'
p1947
tp1948
Rp1949
ag2
(g6
S'ffffff\xf4?'
p1950
tp1951
Rp1952
ag2
(g6
S'\xcd\xcc\xcc\xcc\xccL\xf7?'
p1953
tp1954
Rp1955
ag2
(g6
S'\x00\x00\x00\x00\x00\x00\x00@'
p1956
tp1957
Rp1958
ag2
(g6
S'\xe9\xa2\x8b.\xba\xe8\xf2?'
p1959
tp1960
Rp1961
ag2
(g6
S'\x9e\xe7y\x9e\xe7y\xf6?'
p1962
tp1963
Rp1964
ag2
(g6
S'\x06\x9en\xcd\x0f\x8b\xf4?'
p1965
tp1966
Rp1967
ag2
(g6
S'\xba\xe8\xa2\x8b.\xba\xf9?'
p1968
tp1969
Rp1970
ag2
(g6
S'UUUUUU\xf5?'
p1971
tp1972
Rp1973
ag2
(g6
S'\x00\x00\x00\x00\x00\x00\xf0?'
p1974
tp1975
Rp1976
ag2
(g6
S'\x16\xa5\xf1\x91\t\xf4\xf6?'
p1977
tp1978
Rp1979
ag2
(g6
S"'vb'vb\xf7?"
p1980
tp1981
Rp1982
ag2
(g6
S'gu\x18e*\x9e\xfb?'
p1983
tp1984
Rp1985
ag2
(g6
S'\xab\xaa\xaa\xaa\xaa\xaa\xfa?'
p1986
tp1987
Rp1988
ag2
(g6
S'2\x82\x89\xfeNV\xfb?'
p1989
tp1990
Rp1991
ag2
(g6
S'\x8d\xdf.\xf5d\xfc\xf6?'
p1992
tp1993
Rp1994
ag2
(g6
S'\x00\x00\x00\x00\x00\x00\xf9?'
p1995
tp1996
Rp1997
ag2
(g6
S'\xf2Y7\x98"\x9f\xf9?'
p1998
tp1999
Rp2000
ag2
(g6
S'\x00\x00\x00\x00\x00\x80\xfb?'
p2001
tp2002
Rp2003
ag2
(g6
S'%I\x92$I\x92\xf6?'
p2004
tp2005
Rp2006
ag2
(g6
S'\x86\x83\xe8\xf1]8\xf8?'
p2007
tp2008
Rp2009
ag2
(g6
S'\x87\xd4\x04\xe3\xad\xec\xf3?'
p2010
tp2011
Rp2012
ag2
(g6
S'\xeaMoz\xd3\x9b\xf6?'
p2013
tp2014
Rp2015
ag2
(g6
S'\x0e7\xdcp\xc3\r\xf7?'
p2016
tp2017
Rp2018
ag2
(g6
S'\xf4<\xcf\xf3<\xcf\xf3?'
p2019
tp2020
Rp2021
ag2
(g6
S'UUUUUU\xfd?'
p2022
tp2023
Rp2024
ag2
(g6
S'ZZZZZZ\xf6?'
p2025
tp2026
Rp2027
ag2
(g6
S'\xcd]\xf0WqB\xfa?'
p2028
tp2029
Rp2030
ag2
(g6
S'\x955eMYS\xf6?'
p2031
tp2032
Rp2033
ag2
(g6
S'n\xdb\xb6m\xdb\xb6\xf5?'
p2034
tp2035
Rp2036
ag2
(g6
S'lE\xd0pR\xf7\xf5?'
p2037
tp2038
Rp2039
ag2
(g6
S'\x00\x00\x00\x00\x00\x00\xf3?'
p2040
tp2041
Rp2042
ag2
(g6
S'\xb7m\xdb\xb6m\xdb\xf6?'
p2043
tp2044
Rp2045
ag2
(g6
S'\xab\xaa\xaa\xaa\xaa\xaa\xf6?'
p2046
tp2047
Rp2048
ag2
(g6
S'\x04\x95\xb3[\xf8\xd5\xf8?'
p2049
tp2050
Rp2051
ag2
(g6
S'\x955eMYS\xf6?'
p2052
tp2053
Rp2054
ag2
(g6
S'\xdf\xf2-\xdf\xf2-\xf7?'
p2055
tp2056
Rp2057
ag2
(g6
S'\x1a\xa4A\x1a\xa4A\xfa?'
p2058
tp2059
Rp2060
ag2
(g6
S'}>\x9f\xcf\xe7\xf3\xf9?'
p2061
tp2062
Rp2063
ag2
(g6
S'\x00\x00\x00\x00\x00\x00\xf8?'
p2064
tp2065
Rp2066
ag2
(g6
S'\xab\xaa\xaa\xaa\xaa\xaa\xfa?'
p2067
tp2068
Rp2069
ag2
(g6
S'\xb83$\xe6\xed\x0c\xf9?'
p2070
tp2071
Rp2072
ag2
(g6
S'ffffff\xf6?'
p2073
tp2074
Rp2075
ag2
(g6
S'\x89\x88\x88\x88\x88\x88\xf8?'
p2076
tp2077
Rp2078
ag2
(g6
S'UUUUUU\xf5?'
p2079
tp2080
Rp2081
ag2
(g6
S'\xb6`\x0b\xb6`\x0b\xf6?'
p2082
tp2083
Rp2084
ag2
(g6
S'\x92$I\x92$I\xf6?'
p2085
tp2086
Rp2087
ag2
(g6
S'\x9eeD\x1fP\x1d\xfb?'
p2088
tp2089
Rp2090
ag2
(g6
S'oe\x9fCj\x82\xf9?'
p2091
tp2092
Rp2093
ag2
(g6
S'\x00\x00\x00\x00\x00\x00\xfa?'
p2094
tp2095
Rp2096
ag2
(g6
S':\xe7\x9cs\xce9\xf7?'
p2097
tp2098
Rp2099
ag2
(g6
S'Q^Cy\r\xe5\xf5?'
p2100
tp2101
Rp2102
ag2
(g6
S'z\xd3\x9b\xde\xf4\xa6\xf7?'
p2103
tp2104
Rp2105
ag2
(g6
S'fs\xe9P\x83\xdd\xf9?'
p2106
tp2107
Rp2108
ag2
(g6
S'\xc1\xbc`^0/\xf8?'
p2109
tp2110
Rp2111
ag2
(g6
S'\xdb\xb6m\xdb\xb6m\xfb?'
p2112
tp2113
Rp2114
ag2
(g6
S'\xa5\x94RJ)\xa5\xf4?'
p2115
tp2116
Rp2117
ag2
(g6
S'""""""\xfa?'
p2118
tp2119
Rp2120
ag2
(g6
S']t\xd1E\x17]\xf4?'
p2121
tp2122
Rp2123
ag2
(g6
S'\x8d9c\xce\x983\xf6?'
p2124
tp2125
Rp2126
ag2
(g6
S'\xdc\x11w\xc4\x1dq\xf7?'
p2127
tp2128
Rp2129
ag2
(g6
S'\xb8\xb7\xb7\xb7\xb7\xb7\xf7?'
p2130
tp2131
Rp2132
ag2
(g6
S'B{\t\xed%\xb4\xf7?'
p2133
tp2134
Rp2135
ag2
(g6
S'*\xf2Y7\x98"\xf7?'
p2136
tp2137
Rp2138
ag2
(g6
S'\xf5\xa67\xbd\xe9M\xf7?'
p2139
tp2140
Rp2141
ag2
(g6
S'\xea\xa0\x0e\xea\xa0\x0e\xf6?'
p2142
tp2143
Rp2144
ag2
(g6
S'\x00\x00\x00\x00\x00@\xf8?'
p2145
tp2146
Rp2147
ag2
(g6
S'\xdf{\xef\xbd\xf7\xde\xfb?'
p2148
tp2149
Rp2150
ag2
(g6
S'\x912\xf0tk~\xf8?'
p2151
tp2152
Rp2153
ag2
(g6
S'^Cy\r\xe55\xf8?'
p2154
tp2155
Rp2156
ag2
(g6
S'\x08\x82 \x08\x82 \xf8?'
p2157
tp2158
Rp2159
ag2
(g6
S'\xf0\xe8\x95\xb1\xfd\x8e\xf6?'
p2160
tp2161
Rp2162
ag2
(g6
S'\xce\xfb\x14\x97\x0c\xc1\xfa?'
p2163
tp2164
Rp2165
ag2
(g6
S'5H\x834H\x83\xf4?'
p2166
tp2167
Rp2168
ag2
(g6
S'ffffff\xf6?'
p2169
tp2170
Rp2171
ag2
(g6
S'\xc4\xeaa\xf5\xb0z\xf8?'
p2172
tp2173
Rp2174
ag2
(g6
S"b'vb'v\xfa?"
p2175
tp2176
Rp2177
ag2
(g6
S'\xb8b\r\xb8b\r\xf8?'
p2178
tp2179
Rp2180
ag2
(g6
S'\xaf\xa1\xbc\x86\xf2\x1a\xfa?'
p2181
tp2182
Rp2183
ag2
(g6
S'\x16_\xf1\x15_\xf1\xf5?'
p2184
tp2185
Rp2186
ag2
(g6
S'c}h\xac\x0f\x8d\xf5?'
p2187
tp2188
Rp2189
ag2
(g6
S'\xb6`\x0b\xb6`\x0b\xf6?'
p2190
tp2191
Rp2192
ag2
(g6
S'\xcf\x12v\xf3[\x08\xf8?'
p2193
tp2194
Rp2195
ag2
(g6
S'\xa6\xb3\x98\xceb:\xfb?'
p2196
tp2197
Rp2198
ag2
(g6
S'\xc4\xc3\xc3\xc3\xc3\xc3\xf9?'
p2199
tp2200
Rp2201
ag2
(g6
S'\x11\x11\x11\x11\x11\x11\xf9?'
p2202
tp2203
Rp2204
ag2
(g6
S'\x9a\x99\x99\x99\x99\x99\xf9?'
p2205
tp2206
Rp2207
ag2
(g6
S'\xac\xa7\xb0\x9e\xc2z\xfa?'
p2208
tp2209
Rp2210
ag2
(g6
S'\x18oe\x9fCj\xfa?'
p2211
tp2212
Rp2213
ag2
(g6
S'9\x8e\xe38\x8e\xe3\xf8?'
p2214
tp2215
Rp2216
ag2
(g6
S'\xab\xaa\xaa\xaa\xaa\xaa\xfa?'
p2217
tp2218
Rp2219
ag2
(g6
S']t\xd1E\x17]\xf8?'
p2220
tp2221
Rp2222
ag2
(g6
S'\x00\x00\x00\x00\x00\x00\xfc?'
p2223
tp2224
Rp2225
ag2
(g6
S'L\x91\xcf\xba\xc1\x14\xf9?'
p2226
tp2227
Rp2228
ag2
(g6
S'\xaf\xa1\xbc\x86\xf2\x1a\xfa?'
p2229
tp2230
Rp2231
ag2
(g6
S' \x1dK\x99\x04\xbb\xfa?'
p2232
tp2233
Rp2234
ag2
(g6
S'\x00\x00\x00\x00\x00\xe0\xf6?'
p2235
tp2236
Rp2237
ag2
(g6
S'\xbf<\xb6"h8\xf9?'
p2238
tp2239
Rp2240
ag2
(g6
S'\xcd\xcc\xcc\xcc\xcc\xcc\xf8?'
p2241
tp2242
Rp2243
ag2
(g6
S'\xfb\xc9\x12\xd8\xb4\x9f\xfc?'
p2244
tp2245
Rp2246
ag2
(g6
S'V\x87Q\xa6\xe2\xb9\xf6?'
p2247
tp2248
Rp2249
ag2
(g6
S'\xab\xaa\xaa\xaa\xaa\xaa\xf6?'
p2250
tp2251
Rp2252
ag2
(g6
S'w\x7f\x07\x97\xbd\xa1\xf7?'
p2253
tp2254
Rp2255
ag2
(g6
S'\xb2\x01\xd9\x80l@\xf6?'
p2256
tp2257
Rp2258
ag2
(g6
S'\xb4n0E>\xeb\xf6?'
p2259
tp2260
Rp2261
ag2
(g6
S'\xc1:\xda\xbcOq\xf9?'
p2262
tp2263
Rp2264
ag2
(g6
S'\x98\xd0^B{\t\xfd?'
p2265
tp2266
Rp2267
ag2
(g6
S'\x9a\x99\x99\x99\x99\x99\xf9?'
p2268
tp2269
Rp2270
ag2
(g6
S'\x00\x00\x00\x00\x00\x00\xf9?'
p2271
tp2272
Rp2273
ag2
(g6
S'9\x8e\xe38\x8e\xe3\xf4?'
p2274
tp2275
Rp2276
ag2
(g6
S'\xdc\xedv\xbb\xddn\xf7?'
p2277
tp2278
Rp2279
ag2
(g6
S'O\xec\xc4N\xec\xc4\xf6?'
p2280
tp2281
Rp2282
ag2
(g6
S'\n\xd7\xa3p=\n\xf7?'
p2283
tp2284
Rp2285
ag2
(g6
S'\xad)k\xca\x9a\xb2\xf6?'
p2286
tp2287
Rp2288
ag2
(g6
S'\x00\x00\x00\x00\x00\x00\xfc?'
p2289
tp2290
Rp2291
ag2
(g6
S'\xf5\xec\x10\xb8\xb1\x0c\xfa?'
p2292
tp2293
Rp2294
ag2
(g6
S'Dj\x82\xf1V\xf6\xf9?'
p2295
tp2296
Rp2297
ag2
(g6
S' \xfd\xe8G?\xfa\xf9?'
p2298
tp2299
Rp2300
ag2
(g6
S'\x91\x85,d!\x0b\xf9?'
p2301
tp2302
Rp2303
ag2
(g6
S'\x87\xf2\x1a\xcak(\xfb?'
p2304
tp2305
Rp2306
ag2
(g6
S'H\x834H\x834\xf8?'
p2307
tp2308
Rp2309
ag2
(g6
S' Y\xe7\xca\x03\x92\xf5?'
p2310
tp2311
Rp2312
ag2
(g6
S'Y\x1f\x1a\xebCc\xfd?'
p2313
tp2314
Rp2315
ag2
(g6
S'\xe2\x8e\xb8#\xee\x88\xfb?'
p2316
tp2317
Rp2318
ag2
(g6
S'\xe8\x968\xf5{n\xf9?'
p2319
tp2320
Rp2321
ag2
(g6
S'\xd8P^Cy\r\xf9?'
p2322
tp2323
Rp2324
ag2
(g6
S'uP\x07uP\x07\xf5?'
p2325
tp2326
Rp2327
ag2
(g6
S'\xab\xaa\xaa\xaa\xaa\xaa\xf2?'
p2328
tp2329
Rp2330
ag2
(g6
S"vb'vb'\xfa?"
p2331
tp2332
Rp2333
ag2
(g6
S'r\x1c\xc7q\x1c\xc7\xf9?'
p2334
tp2335
Rp2336
ag2
(g6
S'\x86,d!\x0bY\xf8?'
p2337
tp2338
Rp2339
ag2
(g6
S'\xc7\xc6\xc6\xc6\xc6\xc6\xf6?'
p2340
tp2341
Rp2342
ag2
(g6
S'J\xdd\x97\xc7V\x04\xfd?'
p2343
tp2344
Rp2345
ag2
(g6
S'\x00\x00\x00\x00\x00\x00\xf0?'
p2346
tp2347
Rp2348
ag2
(g6
S'\xcb>\x87\xd4\x04\xe3\xf5?'
p2349
tp2350
Rp2351
ag2
(g6
S'\xf5\xa67\xbd\xe9M\xfb?'
p2352
tp2353
Rp2354
ag2
(g6
S'\xa2\xdfl\x1d\xfa\xcd\xf6?'
p2355
tp2356
Rp2357
ag2
(g6
S'iiiiii\xf5?'
p2358
tp2359
Rp2360
ag2
(g6
S'\xb2\xc9&\x9bl\xb2\xf9?'
p2361
tp2362
Rp2363
ag2
(g6
S'\xb2\xc9&\x9bl\xb2\xfd?'
p2364
tp2365
Rp2366
ag2
(g6
S'\x89\xda\x95\xa8]\x89\xfa?'
p2367
tp2368
Rp2369
ag2
(g6
S'\xd9\x8f\xfd\xd8\x8f\xfd\xf8?'
p2370
tp2371
Rp2372
ag2
(g6
S'iiiiii\xf9?'
p2373
tp2374
Rp2375
ag2
(g6
S'\xb6`\x0b\xb6`\x0b\xf6?'
p2376
tp2377
Rp2378
ag2
(g6
S'\t\xed%\xb4\x97\xd0\xf6?'
p2379
tp2380
Rp2381
ag2
(g6
S'\x18\x86a\x18\x86a\xf8?'
p2382
tp2383
Rp2384
ag2
(g6
S'\x11B\x08!\x84\x10\xf2?'
p2385
tp2386
Rp2387
ag2
(g6
S'333333\xf3?'
p2388
tp2389
Rp2390
ag2
(g6
S'\xe2\xe1\xe1\xe1\xe1\xe1\xf9?'
p2391
tp2392
Rp2393
ag2
(g6
S'\xe7\xe6\xe6\xe6\xe6\xe6\xf6?'
p2394
tp2395
Rp2396
ag2
(g6
S'ffffff\xf6?'
p2397
tp2398
Rp2399
ag2
(g6
S'6\xd9d\x93M6\xf9?'
p2400
tp2401
Rp2402
ag2
(g6
S'w\xa8n\x87\xeav\xf8?'
p2403
tp2404
Rp2405
ag2
(g6
S'\xd4\x08\xcb=\x8d\xb0\xfc?'
p2406
tp2407
Rp2408
ag2
(g6
S'\xc4\x88\x11#F\x8c\xf8?'
p2409
tp2410
Rp2411
ag2
(g6
S'\xb1\x13;\xb1\x13;\xf9?'
p2412
tp2413
Rp2414
ag2
(g6
S'\xd2\x8e\x15\x08#\xed\xf8?'
p2415
tp2416
Rp2417
ag2
(g6
S'\xcak(\xaf\xa1\xbc\xf6?'
p2418
tp2419
Rp2420
ag2
(g6
S'\xd1^B{\t\xed\xf5?'
p2421
tp2422
Rp2423
ag2
(g6
S'\xab\xaa\xaa\xaa\xaa*\xfb?'
p2424
tp2425
Rp2426
ag2
(g6
S'\x12\x96{\x1aa\xb9\xf7?'
p2427
tp2428
Rp2429
ag2
(g6
S'r\x1c\xc7q\x1c\xc7\xf9?'
p2430
tp2431
Rp2432
ag2
(g6
S'\xc4\xc3\xc3\xc3\xc3\xc3\xf3?'
p2433
tp2434
Rp2435
ag2
(g6
S'r\x1c\xc7q\x1c\xc7\xf7?'
p2436
tp2437
Rp2438
ag2
(g6
S'\x7f\x913,\xb8T\xf6?'
p2439
tp2440
Rp2441
ag2
(g6
S'\xf5\xa67\xbd\xe9M\xf7?'
p2442
tp2443
Rp2444
ag2
(g6
S"'vb'vb\xf7?"
p2445
tp2446
Rp2447
ag2
(g6
S'\x00\x00\x00\x00\x00\xc0\xfd?'
p2448
tp2449
Rp2450
ag2
(g6
S'\x97\x0c\xc1:\xda\xbc\xf7?'
p2451
tp2452
Rp2453
ag2
(g6
S'\xd5J\xad\xd4J\xad\xf4?'
p2454
tp2455
Rp2456
ag2
(g6
S'Fs\x19\xcde4\xf7?'
p2457
tp2458
Rp2459
ag2
(g6
S'Cy\r\xe55\x94\xf7?'
p2460
tp2461
Rp2462
ag2
(g6
S'oe\x9fCj\x82\xf9?'
p2463
tp2464
Rp2465
ag2
(g6
S'P?\xfd\xf4\xd3O\xf7?'
p2466
tp2467
Rp2468
ag2
(g6
S'ffffff\xf6?'
p2469
tp2470
Rp2471
ag2
(g6
S'\x9b`\xbc\x95}\x0e\xf9?'
p2472
tp2473
Rp2474
ag2
(g6
S"b'vb'v\xf2?"
p2475
tp2476
Rp2477
ag2
(g6
S'Lg1\x9d\xc5t\xf6?'
p2478
tp2479
Rp2480
ag2
(g6
S'\x04A\x10\x04A\x10\xf4?'
p2481
tp2482
Rp2483
ag2
(g6
S'\x0bY\xc8B\x16\xb2\xfa?'
p2484
tp2485
Rp2486
ag2
(g6
S'\xecQ\xb8\x1e\x85\xeb\xf5?'
p2487
tp2488
Rp2489
ag2
(g6
S'\xb6\x87\\V\x0c\x94\xf8?'
p2490
tp2491
Rp2492
ag2
(g6
S'\xc1\xd3\xad\xf9a\x91\xfa?'
p2493
tp2494
Rp2495
ag2
(g6
S'\x86a\x18\x86a\x18\xf6?'
p2496
tp2497
Rp2498
ag2
(g6
S'P\x07uP\x07u\xf8?'
p2499
tp2500
Rp2501
ag2
(g6
S'\x13\xb5+Q\xbb\x12\xf5?'
p2502
tp2503
Rp2504
ag2
(g6
S'\xba\xe8\xa2\x8b.\xba\xf8?'
p2505
tp2506
Rp2507
ag2
(g6
S'\x8b\xf8\x04R\xc9y\xf9?'
p2508
tp2509
Rp2510
ag2
(g6
S'\xf8\xe0\x83\x0f>\xf8\xf8?'
p2511
tp2512
Rp2513
ag2
(g6
S'\xfc\xbe\xef\xfb\xbe\xef\xfb?'
p2514
tp2515
Rp2516
ag2
(g6
S'#7r#7r\xfb?'
p2517
tp2518
Rp2519
ag2
(g6
S'\x1f\xa8\x9c\xdd\xc2\xaf\xf6?'
p2520
tp2521
Rp2522
ag2
(g6
S'\xd3\xd2\xd2\xd2\xd2\xd2\xf6?'
p2523
tp2524
Rp2525
ag2
(g6
S'\x14;\xb1\x13;\xb1\xf3?'
p2526
tp2527
Rp2528
ag2
(g6
S'\x1c\xc7q\x1c\xc7q\xf4?'
p2529
tp2530
Rp2531
ag2
(g6
S'\x08!\x84\x10B\x08\xf9?'
p2532
tp2533
Rp2534
ag2
(g6
S'z\xd3\x9b\xde\xf4\xa6\xf7?'
p2535
tp2536
Rp2537
ag2
(g6
S'm\xd4w6\xea;\xfb?'
p2538
tp2539
Rp2540
ag2
(g6
S'I\x7f=W\xb1l\xfc?'
p2541
tp2542
Rp2543
ag2
(g6
S'w\xc4\x1dqG\xdc\xf1?'
p2544
tp2545
Rp2546
ag2
(g6
S'P\x07uP\x07u\xf8?'
p2547
tp2548
Rp2549
ag2
(g6
S'\x00\x00\x00\x00\x00@\xf6?'
p2550
tp2551
Rp2552
ag2
(g6
S'YS\xd6\x945e\xfd?'
p2553
tp2554
Rp2555
ag2
(g6
S'\x93g\x19\xd1\x07T\xf7?'
p2556
tp2557
Rp2558
ag2
(g6
S'\x91\x85,d!\x0b\xf9?'
p2559
tp2560
Rp2561
ag2
(g6
S'\x8e\xe38\x8e\xe38\xfe?'
p2562
tp2563
Rp2564
ag2
(g6
S'\x8e\xe38\x8e\xe38\xf6?'
p2565
tp2566
Rp2567
ag2
(g6
S'~F\x89\x9fQ\xe2\xf7?'
p2568
tp2569
Rp2570
ag2
(g6
S')\xa5\x94RJ)\xf5?'
p2571
tp2572
Rp2573
ag2
(g6
S'######\xf3?'
p2574
tp2575
Rp2576
ag2
(g6
S'UUUUUU\xf5?'
p2577
tp2578
Rp2579
ag2
(g6
S'\x7f\xfa\xe9\xa7\x9f~\xfa?'
p2580
tp2581
Rp2582
ag2
(g6
S'\xf5\xa67\xbd\xe9M\xf7?'
p2583
tp2584
Rp2585
ag2
(g6
S'X\x8c\x84\xd2\xc6;\xfa?'
p2586
tp2587
Rp2588
ag2
(g6
S'\x8d\xf5\xa1\xb1>4\xf6?'
p2589
tp2590
Rp2591
ag2
(g6
S'|n\x89S\xbf\xe7\xf6?'
p2592
tp2593
Rp2594
ag2
(g6
S'/\xf5d\xfcv\xa9\xf7?'
p2595
tp2596
Rp2597
ag2
(g6
S'\xab\xaa\xaa\xaa\xaa\xaa\xf6?'
p2598
tp2599
Rp2600
ag2
(g6
S'B|\x07\xf1\x1d\xc4\xf7?'
p2601
tp2602
Rp2603
ag2
(g6
S'UUUUUU\xf6?'
p2604
tp2605
Rp2606
ag2
(g6
S'=\n\xd7\xa3p=\xfa?'
p2607
tp2608
Rp2609
ag2
(g6
S'\x1aa\xb9\xa7\x11\x96\xf7?'
p2610
tp2611
Rp2612
ag2
(g6
S'UUUUUU\xf5?'
p2613
tp2614
Rp2615
ag2
(g6
S'\x08\x87p\x08\x87p\xf8?'
p2616
tp2617
Rp2618
ag2
(g6
S'\x051\xb9\x82\x98\\\xf1?'
p2619
tp2620
Rp2621
ag2
(g6
S'\xfb\xd9be\xf8F\xf4?'
p2622
tp2623
Rp2624
ag2
(g6
S'oz\xd3\x9b\xde\xf4\xf6?'
p2625
tp2626
Rp2627
ag2
(g6
S'w%jW\xa2v\xf5?'
p2628
tp2629
Rp2630
ag2
(g6
S'\x06[\xb0\x05[\xb0\xfd?'
p2631
tp2632
Rp2633
ag2
(g6
S'bEi|d\x02\xf5?'
p2634
tp2635
Rp2636
ag2
(g6
S'\xcd\xcc\xcc\xcc\xcc\xcc\xf8?'
p2637
tp2638
Rp2639
ag2
(g6
S'&\xb4\x97\xd0^B\xfb?'
p2640
tp2641
Rp2642
ag2
(g6
S'i\x8d\xd6h\x8d\xd6\xf8?'
p2643
tp2644
Rp2645
ag2
(g6
S'\x00\x00\x00\x00\x00@\xf7?'
p2646
tp2647
Rp2648
ag2
(g6
S'2\xc6\x18c\x8c1\xf6?'
p2649
tp2650
Rp2651
ag2
(g6
S'\x9fFX\xeei\x84\xf9?'
p2652
tp2653
Rp2654
ag2
(g6
S'\xb7m\xdb\xb6m\xdb\xf6?'
p2655
tp2656
Rp2657
ag2
(g6
S'1\x0c\xc30\x0c\xc3\xf8?'
p2658
tp2659
Rp2660
ag2
(g6
S'4\x9c\xd4}yl\xf5?'
p2661
tp2662
Rp2663
ag2
(g6
S'/\xf5d\xfcv\xa9\xf7?'
p2664
tp2665
Rp2666
ag2
(g6
S'\xb6\xd6Zk\xad\xb5\xf6?'
p2667
tp2668
Rp2669
ag2
(g6
S';\xb1\x13;\xb1\x13\xf5?'
p2670
tp2671
Rp2672
ag2
(g6
S'\xe5\x16On\xf1\xe4\xf6?'
p2673
tp2674
Rp2675
ag2
(g6
S'fffff\xe6\xf7?'
p2676
tp2677
Rp2678
ag2
(g6
S'\xb4\x97\xd0^B{\xf9?'
p2679
tp2680
Rp2681
ag2
(g6
S'\xf5\xa67\xbd\xe9M\xf7?'
p2682
tp2683
Rp2684
ag2
(g6
S'\xc0\x92^\xfe\xb4\x85\xf6?'
p2685
tp2686
Rp2687
ag2
(g6
S'^Cy\r\xe55\xfc?'
p2688
tp2689
Rp2690
ag2
(g6
S'\xfc\x8d\xb2\xfb\x8d\xb2\xfb?'
p2691
tp2692
Rp2693
ag2
(g6
S'\x00\x00\x00\x00\x00\x00\xf7?'
p2694
tp2695
Rp2696
ag2
(g6
S'\x98k\x07\xe6\xda\x81\xf9?'
p2697
tp2698
Rp2699
ag2
(g6
S'\x9b`\xbc\x95}\x0e\xf9?'
p2700
tp2701
Rp2702
ag2
(g6
S'\x8d\x97n\x12\x83\xc0\xfa?'
p2703
tp2704
Rp2705
ag2
(g6
S'\xab\xaa\xaa\xaa\xaa*\xfa?'
p2706
tp2707
Rp2708
ag2
(g6
S'\xb4n0E>\xeb\xf6?'
p2709
tp2710
Rp2711
ag2
(g6
S'\xdb\xb6m\xdb\xb6m\xf7?'
p2712
tp2713
Rp2714
ag2
(g6
S'\x00\x00\x00\x00\x00\x00\xf5?'
p2715
tp2716
Rp2717
ag2
(g6
S'\x00\x00\x00\x00\x00\x00\xf8?'
p2718
tp2719
Rp2720
ag2
(g6
S'\xd3\xd2\xd2\xd2\xd2\xd2\xf2?'
p2721
tp2722
Rp2723
ag2
(g6
S'i\x90\x06i\x90\x06\xf9?'
p2724
tp2725
Rp2726
ag2
(g6
S'>\xe4\xb2b\xa0\x84\xf7?'
p2727
tp2728
Rp2729
ag2
(g6
S'f\x97]v\xd9e\xf7?'
p2730
tp2731
Rp2732
ag2
(g6
S'Cy\r\xe55\x94\xf7?'
p2733
tp2734
Rp2735
ag2
(g6
S'?\x87\xd4\x04\xe3\xad\xf4?'
p2736
tp2737
Rp2738
ag2
(g6
S'J\x93&M\x9a4\xf9?'
p2739
tp2740
Rp2741
ag2
(g6
S'I\x84T\xcb:\xd0\xf6?'
p2742
tp2743
Rp2744
ag2
(g6
S'\x9a\x99\x99\x99\x99\x99\xf5?'
p2745
tp2746
Rp2747
ag2
(g6
S'\x00\x00\x00\x00\x00\x00\xf8?'
p2748
tp2749
Rp2750
ag2
(g6
S'\xcd\xcc\xcc\xcc\xcc\xcc\xf4?'
p2751
tp2752
Rp2753
ag2
(g6
S'\xd8;\xa6\x06\xf6\x8e\xf9?'
p2754
tp2755
Rp2756
ag2
(g6
S'\xf1\x15_\xf1\x15_\xf9?'
p2757
tp2758
Rp2759
ag2
(g6
S'y\x81L\x8a\x17\xc8\xf4?'
p2760
tp2761
Rp2762
ag2
(g6
S'\xab\xaa\xaa\xaa\xaa\xaa\xf4?'
p2763
tp2764
Rp2765
ag2
(g6
S'ffffff\xf6?'
p2766
tp2767
Rp2768
ag2
(g6
S'Q\xbb\x12\xb5+Q\xfb?'
p2769
tp2770
Rp2771
ag2
(g6
S'\x0e\xa6\xc8g\xdd`\xf2?'
p2772
tp2773
Rp2774
ag2
(g6
S'd!\x0bY\xc8B\xf6?'
p2775
tp2776
Rp2777
ag2
(g6
S'i\x90\x06i\x90\x06\xf9?'
p2778
tp2779
Rp2780
ag2
(g6
S'\xa6\xa5\xa5\xa5\xa5\xa5\xf9?'
p2781
tp2782
Rp2783
ag2
(g6
S'\x00\x00\x00\x00\x00\x80\xf8?'
p2784
tp2785
Rp2786
ag2
(g6
S'\x1a\xa4A\x1a\xa4A\xfa?'
p2787
tp2788
Rp2789
ag2
(g6
S'AT:\xb2g \xfa?'
p2790
tp2791
Rp2792
ag2
(g6
S'"<)H\xfe\xbc\xfa?'
p2793
tp2794
Rp2795
ag2
(g6
S'\xeaMoz\xd3\x9b\xf6?'
p2796
tp2797
Rp2798
ag2
(g6
S'\x00\x00\x00\x00\x00\x00\x00@'
p2799
tp2800
Rp2801
ag2
(g6
S'\xf1\t\xa4\x92\xf3\xb2\xf8?'
p2802
tp2803
Rp2804
ag2
(g6
S'q=\n\xd7\xa3p\xf5?'
p2805
tp2806
Rp2807
ag2
(g6
S'\xb1\x13;\xb1\x13;\xf9?'
p2808
tp2809
Rp2810
ag2
(g6
S'\xd5\x04\xe3\xad\xecs\xf8?'
p2811
tp2812
Rp2813
ag2
(g6
S'\xc5N\xec\xc4N\xec\xf4?'
p2814
tp2815
Rp2816
ag2
(g6
S'B{\t\xed%\xb4\xf7?'
p2817
tp2818
Rp2819
ag2
(g6
S'L\xd0]\xa5\x98\xa0\xfb?'
p2820
tp2821
Rp2822
ag2
(g6
S'\xea,\xa6\xb3\x98\xce\xfa?'
p2823
tp2824
Rp2825
ag2
(g6
S'9\x8e\xe38\x8e\xe3\xf8?'
p2826
tp2827
Rp2828
ag2
(g6
S'!g\xc9\xfeZW\xf8?'
p2829
tp2830
Rp2831
ag2
(g6
S'e\x93M6\xd9d\xf3?'
p2832
tp2833
Rp2834
ag2
(g6
S'\x17l\xc1\x16l\xc1\xf6?'
p2835
tp2836
Rp2837
ag2
(g6
S'\xd7\xdeX\xfd\x81\x1e\xf9?'
p2838
tp2839
Rp2840
ag2
(g6
S'\xb7\xb6\xb6\xb6\xb6\xb6\xf6?'
p2841
tp2842
Rp2843
ag2
(g6
S'\x00\x00\x00\x00\x00\x00\xf8?'
p2844
tp2845
Rp2846
ag2
(g6
S'\x9a\x99\x99\x99\x99\x99\xf9?'
p2847
tp2848
Rp2849
ag2
(g6
S'\x87Q\xa6\xe2\xb9f\xf5?'
p2850
tp2851
Rp2852
ag2
(g6
S'%I\x92$I\x92\xfc?'
p2853
tp2854
Rp2855
ag2
(g6
S'\xcd\xcc\xcc\xcc\xcc\xcc\xf8?'
p2856
tp2857
Rp2858
ag2
(g6
S'\xa2\xd2\x91=\x03Q\xf9?'
p2859
tp2860
Rp2861
ag2
(g6
S'\xfb\xceF}g\xa3\xf6?'
p2862
tp2863
Rp2864
ag2
(g6
S'\xf0\xc1\x07\x1f|\xf0\xf1?'
p2865
tp2866
Rp2867
ag2
(g6
S'\xc1\x8deP*L\xfc?'
p2868
tp2869
Rp2870
ag2
(g6
S'r\x1c\xc7q\x1c\xc7\xf1?'
p2871
tp2872
Rp2873
ag2
(g6
S'\xef\xee\xee\xee\xee\xee\xf6?'
p2874
tp2875
Rp2876
ag2
(g6
S'\x9a\x99\x99\x99\x99\x99\xf9?'
p2877
tp2878
Rp2879
ag2
(g6
S'%I\x92$I\x92\xf4?'
p2880
tp2881
Rp2882
ag2
(g6
S'\x00\x00\x00\x00\x00\x00\xf6?'
p2883
tp2884
Rp2885
ag2
(g6
S'\x92$I\x92$I\xf5?'
p2886
tp2887
Rp2888
ag2
(g6
S'\xadd%+Y\xc9\xfa?'
p2889
tp2890
Rp2891
ag2
(g6
S'\xbb\x12\xb5+Q\xbb\xf2?'
p2892
tp2893
Rp2894
ag2
(g6
S'\x11\x11\x11\x11\x11\x11\xf9?'
p2895
tp2896
Rp2897
ag2
(g6
S']t\xd1E\x17]\xf4?'
p2898
tp2899
Rp2900
ag2
(g6
S'\x00\x00\x00\x00\x00\x00\x00@'
p2901
tp2902
Rp2903
ag2
(g6
S'SJ)\xa5\x94R\xfa?'
p2904
tp2905
Rp2906
ag2
(g6
S'\xc6\x18c\x8c1\xc6\xf8?'
p2907
tp2908
Rp2909
ag2
(g6
S'Ur^\x16\xf1\t\xf4?'
p2910
tp2911
Rp2912
ag2
(g6
S'\xe3+\xbe\xe2+\xbe\xf2?'
p2913
tp2914
Rp2915
ag2
(g6
S'tT\xe0\x8b\xab\x1f\xf4?'
p2916
tp2917
Rp2918
ag2
(g6
S'7\x98"\x9fu\x83\xf5?'
p2919
tp2920
Rp2921
ag2
(g6
S'\xaa\x84\x80\x9c\x9fJ\xf8?'
p2922
tp2923
Rp2924
ag2
(g6
S'\xe48\x8e\xe38\x8e\xfb?'
p2925
tp2926
Rp2927
ag2
(g6
S'\x89\x88\x88\x88\x88\x88\xf8?'
p2928
tp2929
Rp2930
ag2
(g6
S'\xd4\xad\xf9a\x912\xf8?'
p2931
tp2932
Rp2933
ag2
(g6
S'\xab\xaa\xaa\xaa\xaa\xaa\xfa?'
p2934
tp2935
Rp2936
ag2
(g6
S"vb'vb'\xfa?"
p2937
tp2938
Rp2939
ag2
(g6
S'\x9b\x1f\x16)\x03O\xf7?'
p2940
tp2941
Rp2942
ag2
(g6
S'\x17l\xc1\x16l\xc1\xf6?'
p2943
tp2944
Rp2945
ag2
(g6
S'\x9e\xd8\x89\x9d\xd8\x89\xed?'
p2946
tp2947
Rp2948
ag2
(g6
S'\x9a\x99\x99\x99\x99\x99\xe9?'
p2949
tp2950
Rp2951
ag2
(g6
S'Ne\xc26\x08N\xf5?'
p2952
tp2953
Rp2954
ag2
(g6
S'(\xaf\xa1\xbc\x86\xf2\xf8?'
p2955
tp2956
Rp2957
ag2
(g6
S'\x86,d!\x0bY\xf8?'
p2958
tp2959
Rp2960
ag2
(g6
S'\x11B\x08!\x84\x10\xfa?'
p2961
tp2962
Rp2963
ag2
(g6
S'w\xac@\x18i\xc7\xfa?'
p2964
tp2965
Rp2966
ag2
(g6
S'H\xe1z\x14\xaeG\xf1?'
p2967
tp2968
Rp2969
ag2
(g6
S'>\xf8\xe0\x83\x0f>\xf8?'
p2970
tp2971
Rp2972
ag2
(g6
S'\xcb\xb7|\xcb\xb7|\xfb?'
p2973
tp2974
Rp2975
ag2
(g6
S'X|\xc5W|\xc5\xf7?'
p2976
tp2977
Rp2978
ag2
(g6
S'%I\x92$I\x92\xf4?'
p2979
tp2980
Rp2981
ag2
(g6
S'\xa3\x8b.\xba\xe8\xa2\xf5?'
p2982
tp2983
Rp2984
ag2
(g6
S'\xc1\xc0\xc0\xc0\xc0\xc0\xf8?'
p2985
tp2986
Rp2987
ag2
(g6
S'B{\t\xed%\xb4\xf7?'
p2988
tp2989
Rp2990
ag2
(g6
S'/\xba\xe8\xa2\x8b.\xfa?'
p2991
tp2992
Rp2993
ag2
(g6
S't\xd1E\x17]t\xfd?'
p2994
tp2995
Rp2996
ag2
(g6
S'n\xdb\xb6m\xdb\xb6\xf5?'
p2997
tp2998
Rp2999
ag2
(g6
S'\x14\xaeG\xe1z\x14\xfa?'
p3000
tp3001
Rp3002
ag2
(g6
S'{\x98\x05\xe4\x8bD\xf9?'
p3003
tp3004
Rp3005
ag2
(g6
S'J)\xa5\x94RJ\xf9?'
p3006
tp3007
Rp3008
ag2
(g6
S'\x89\x88\x88\x88\x88\x88\xf8?'
p3009
tp3010
Rp3011
ag2
(g6
S'\xab\xaa\xaa\xaa\xaa*\xfb?'
p3012
tp3013
Rp3014
ag2
(g6
S'\xd8\xd7\xd7\xd7\xd7\xd7\xf7?'
p3015
tp3016
Rp3017
ag2
(g6
S'\xbf\xb3Q\xdf\xd9\xa8\xff?'
p3018
tp3019
Rp3020
ag2
(g6
S'AT:\xb2g \xfa?'
p3021
tp3022
Rp3023
ag2
(g6
S'\xce~!V\x94\xc6\xf7?'
p3024
tp3025
Rp3026
ag2
(g6
S'\xed\x02bSi\xc8\xf9?'
p3027
tp3028
Rp3029
ag2
(g6
S'd!\x0bY\xc8B\xf6?'
p3030
tp3031
Rp3032
ag2
(g6
S'\xdb\xb6m\xdb\xb6m\xf8?'
p3033
tp3034
Rp3035
ag2
(g6
S'\x9c\xde\xf4\xa67\xbd\xf9?'
p3036
tp3037
Rp3038
ag2
(g6
S'\x1e\x1e\x1e\x1e\x1e\x1e\xfe?'
p3039
tp3040
Rp3041
ag2
(g6
S'p\xf9\x96o\xf9\x96\xfb?'
p3042
tp3043
Rp3044
ag2
(g6
S'\x91\x85,d!\x0b\xfb?'
p3045
tp3046
Rp3047
ag2
(g6
S'\x00\x00\x00\x00\x00\x00\xf4?'
p3048
tp3049
Rp3050
ag2
(g6
S'\xaf\xa1\xbc\x86\xf2\x1a\xfa?'
p3051
tp3052
Rp3053
ag2
(g6
S'\xc8\xe0|\x0c\xce\xc7\xf8?'
p3054
tp3055
Rp3056
ag2
(g6
S'm\xde\xa7\xb8d\x08\xf6?'
p3057
tp3058
Rp3059
ag2
(g6
S'\xdb\xb6m\xdb\xb6m\xf3?'
p3060
tp3061
Rp3062
ag2
(g6
S'\xcb=\x8d\xb0\xdc\xd3\xf8?'
p3063
tp3064
Rp3065
ag2
(g6
S'9\x8e\xe38\x8e\xe3\xf4?'
p3066
tp3067
Rp3068
ag2
(g6
S'xxxxxx\xf8?'
p3069
tp3070
Rp3071
ag2
(g6
S'|\xc5W|\xc5W\xfc?'
p3072
tp3073
Rp3074
ag2
(g6
S'\xaf\x9f-V\x86o\xfc?'
p3075
tp3076
Rp3077
ag2
(g6
S'F\x17]t\xd1E\xf7?'
p3078
tp3079
Rp3080
ag2
(g6
S'\xbe\xe2+\xbe\xe2+\xf6?'
p3081
tp3082
Rp3083
ag2
(g6
S'\xa4p=\n\xd7\xa3\xf8?'
p3084
tp3085
Rp3086
ag2
(g6
S'\xc1\\;0\xd7\x0e\xfc?'
p3087
tp3088
Rp3089
ag2
(g6
S'UUUUUU\xf5?'
p3090
tp3091
Rp3092
ag2
(g6
S'\x14\xb7Bq+\x14\xf7?'
p3093
tp3094
Rp3095
ag2
(g6
S'UUUUUU\xf9?'
p3096
tp3097
Rp3098
ag2
(g6
S'\x06}A_\xd0\x17\xf4?'
p3099
tp3100
Rp3101
ag2
(g6
S'\xf2\x8b%\xbfX\xf2\xfb?'
p3102
tp3103
Rp3104
ag2
(g6
S'\xd1\n\x9b\x03\x89V\xf8?'
p3105
tp3106
Rp3107
ag2
(g6
S'\xb1\x13;\xb1\x13;\xf9?'
p3108
tp3109
Rp3110
ag2
(g6
S',\xbe\xe2+\xbe\xe2\xf3?'
p3111
tp3112
Rp3113
ag2
(g6
S'\xd4\xe9t:\x9dN\xf7?'
p3114
tp3115
Rp3116
ag2
(g6
S'\xa6\xa5\xa5\xa5\xa5\xa5\xf5?'
p3117
tp3118
Rp3119
ag2
(g6
S'n\xdb\xb6m\xdb\xb6\xf7?'
p3120
tp3121
Rp3122
ag2
(g6
S'\x95\x81\xa7[\xf3\xc3\xf2?'
p3123
tp3124
Rp3125
ag2
(g6
S'\xa1\x0e\xea\xa0\x0e\xea\xf8?'
p3126
tp3127
Rp3128
ag2
(g6
S'\xf52\x12\xab\xe1\xe2\xf7?'
p3129
tp3130
Rp3131
ag2
(g6
S']t\xd1E\x17]\xf8?'
p3132
tp3133
Rp3134
ag2
(g6
S'\x00\x00\x00\x00\x00\x00\xf9?'
p3135
tp3136
Rp3137
ag2
(g6
S'\x8e\xe38\x8e\xe38\xf8?'
p3138
tp3139
Rp3140
ag2
(g6
S'\x1c\xc7q\x1c\xc7q\xfa?'
p3141
tp3142
Rp3143
ag2
(g6
S'_\xf1\x15_\xf1\x15\xf7?'
p3144
tp3145
Rp3146
ag2
(g6
S'\x9e\xd8\x89\x9d\xd8\x89\xf5?'
p3147
tp3148
Rp3149
ag2
(g6
S'Q^Cy\r\xe5\xf5?'
p3150
tp3151
Rp3152
ag2
(g6
S'\xaa\xf3k\x0f\xb9\xac\xf8?'
p3153
tp3154
Rp3155
ag2
(g6
S'\xe1|\x0c\xce\xc7\xe0\xfc?'
p3156
tp3157
Rp3158
ag2
(g6
S'b#\x1d6\xd2a\xf3?'
p3159
tp3160
Rp3161
ag2
(g6
S'\xbd\xe9Moz\xd3\xf7?'
p3162
tp3163
Rp3164
ag2
(g6
S'(\xaf\xa1\xbc\x86\xf2\xf6?'
p3165
tp3166
Rp3167
ag2
(g6
S'\x9a\x99\x99\x99\x99\x99\xe9?'
p3168
tp3169
Rp3170
ag2
(g6
S'\xe9\xa2\x8b.\xba\xe8\xf2?'
p3171
tp3172
Rp3173
ag2
(g6
S'Hp\x1f\xc1}\x04\xf7?'
p3174
tp3175
Rp3176
ag2
(g6
S'\xcf\xf3<\xcf\xf3<\xf7?'
p3177
tp3178
Rp3179
ag2
(g6
S'\xea\xfc\xdaC.+\xf6?'
p3180
tp3181
Rp3182
ag2
(g6
S'\x0c\xfa\x82\xbe\xa0/\xf8?'
p3183
tp3184
Rp3185
ag2
(g6
S'\xdc\x19\x12\xf3v\x86\xf4?'
p3186
tp3187
Rp3188
ag2
(g6
S'\x00\x00\x00\x00\x00\x00\xf3?'
p3189
tp3190
Rp3191
ag2
(g6
S'\x00\x00\x00\x00\x00\x00\xf7?'
p3192
tp3193
Rp3194
ag2
(g6
S'iiiiii\xf9?'
p3195
tp3196
Rp3197
ag2
(g6
S'w!\xccv!\xcc\xf6?'
p3198
tp3199
Rp3200
ag2
(g6
S'Y\x02\x9b\xf6\x93%\xf8?'
p3201
tp3202
Rp3203
ag2
(g6
S'ffffff\xf6?'
p3204
tp3205
Rp3206
ag2
(g6
S'\x94\xba/\x8f\xad\x08\xfa?'
p3207
tp3208
Rp3209
ag2
(g6
S'\x10>\xf8\xe0\x83\x0f\xf6?'
p3210
tp3211
Rp3212
ag2
(g6
S'^Cy\r\xe55\xf4?'
p3213
tp3214
Rp3215
ag2
(g6
S'\x1a\xa9\x98[\x9d\x91\xfa?'
p3216
tp3217
Rp3218
ag2
(g6
S'\xb8\xd9/\xc4\x8a\xd2\xf8?'
p3219
tp3220
Rp3221
ag2
(g6
S'\x1c\xd6\xbea\xed\x1b\xf6?'
p3222
tp3223
Rp3224
ag2
(g6
S'\xf1\x179\xc3\x82K\xf5?'
p3225
tp3226
Rp3227
ag2
(g6
S'F\x17]t\xd1E\xf7?'
p3228
tp3229
Rp3230
ag2
(g6
S'm\xb12|#\n\xfc?'
p3231
tp3232
Rp3233
ag2
(g6
S"b'vb'v\xf2?"
p3234
tp3235
Rp3236
ag2
(g6
S'ffffff\xf6?'
p3237
tp3238
Rp3239
ag2
(g6
S'[k\xad\xb5\xd6Z\xfb?'
p3240
tp3241
Rp3242
ag2
(g6
S'\xa5R\xa9T*\x95\xfa?'
p3243
tp3244
Rp3245
ag2
(g6
S'\\\xd9\xe7\x90\x9a`\xfc?'
p3246
tp3247
Rp3248
ag2
(g6
S'\xb7m\xdb\xb6m\xdb\xf6?'
p3249
tp3250
Rp3251
ag2
(g6
S'\xe5\xbc,\xe2\x13H\xf5?'
p3252
tp3253
Rp3254
ag2
(g6
S'\x96\x02\xb5~\xa5@\xfd?'
p3255
tp3256
Rp3257
ag2
(g6
S'\x00\x00\x00\x00\x00\x80\x01@'
p3258
tp3259
Rp3260
ag2
(g6
S'\x00\x00\x00\x00\x00\x00\xf6?'
p3261
tp3262
Rp3263
ag2
(g6
S'\x89V\xd8\x1cH\xb4\xfa?'
p3264
tp3265
Rp3266
ag2
(g6
S'\xa1\xbd\x84\xf6\x12\xda\xfb?'
p3267
tp3268
Rp3269
ag2
(g6
S'\xfb\x9b\xcb\xb3\xbf\xb9\xfc?'
p3270
tp3271
Rp3272
ag2
(g6
S'\xb2>4\xd6\x87\xc6\xfa?'
p3273
tp3274
Rp3275
ag2
(g6
S'\xa3\xae\xa8+\xea\x8a\xfa?'
p3276
tp3277
Rp3278
ag2
(g6
S'F\x17]t\xd1E\xf7?'
p3279
tp3280
Rp3281
ag2
(g6
S'{\t\xed%\xb4\x97\xf8?'
p3282
tp3283
Rp3284
ag2
(g6
S'n\xdb\xb6m\xdb\xb6\xfa?'
p3285
tp3286
Rp3287
ag2
(g6
S"'\x18oe\x9fC\xfa?"
p3288
tp3289
Rp3290
ag2
(g6
S'.[\xb6l\xd9\xb2\xf5?'
p3291
tp3292
Rp3293
ag2
(g6
S'""""""\xfa?'
p3294
tp3295
Rp3296
ag2
(g6
S'\x84\x0f>\xf8\xe0\x83\xf7?'
p3297
tp3298
Rp3299
ag2
(g6
S'\xf2Y7\x98"\x9f\xfd?'
p3300
tp3301
Rp3302
ag2
(g6
S'\xab\xaa\xaa\xaa\xaa\xaa\xfc?'
p3303
tp3304
Rp3305
ag2
(g6
S'I\x92$I\x92$\xf9?'
p3306
tp3307
Rp3308
ag2
(g6
S'\xc6t\x16\xd3YL\xf7?'
p3309
tp3310
Rp3311
ag2
(g6
S'\xedsHM0\xde\xfa?'
p3312
tp3313
Rp3314
ag2
(g6
S'\x83\xf318\x1f\x83\xf7?'
p3315
tp3316
Rp3317
ag2
(g6
S'\xd1\n\x9b\x03\x89V\xf8?'
p3318
tp3319
Rp3320
ag2
(g6
S'\x18[\x82o\xf3W\xf8?'
p3321
tp3322
Rp3323
ag2
(g6
S'r\x1c\xc7q\x1c\xc7\xf9?'
p3324
tp3325
Rp3326
ag2
(g6
S"\x98\xc7V\x04\r'\xf5?"
p3327
tp3328
Rp3329
ag2
(g6
S'z\xd3\x9b\xde\xf4\xa6\xf7?'
p3330
tp3331
Rp3332
ag2
(g6
S'k\xad\xb5\xd6Zk\xf9?'
p3333
tp3334
Rp3335
ag2
(g6
S'\x8e\xe38\x8e\xe38\xf6?'
p3336
tp3337
Rp3338
ag2
(g6
S'\xd3\xd2\xd2\xd2\xd2\xd2\xf6?'
p3339
tp3340
Rp3341
ag2
(g6
S'\\\xd9\xe7\x90\x9a`\xfc?'
p3342
tp3343
Rp3344
ag2
(g6
S'\x17]t\xd1E\x17\xf9?'
p3345
tp3346
Rp3347
ag2
(g6
S'\x00\x00\x00\x00\x00\x00\xf0?'
p3348
tp3349
Rp3350
ag2
(g6
S'\xae\xf9a\x912\xf0\xf4?'
p3351
tp3352
Rp3353
ag2
(g6
S'\x00\x00\x00\x00\x00\x00\xf6?'
p3354
tp3355
Rp3356
ag2
(g6
S'\xd5\xc0\xde15\xb0\xf7?'
p3357
tp3358
Rp3359
ag2
(g6
S"w\xa9'\xe3\xb7K\xf5?"
p3360
tp3361
Rp3362
ag2
(g6
S'\x96\xa8]\x89\xda\x95\xf8?'
p3363
tp3364
Rp3365
ag2
(g6
S'\x00\x00\x00\x00\x00\x00\xf8?'
p3366
tp3367
Rp3368
ag2
(g6
S'#h8\xa9\xfb\xf2\xf8?'
p3369
tp3370
Rp3371
ag2
(g6
S'\xdb\xb6m\xdb\xb6m\xf3?'
p3372
tp3373
Rp3374
ag2
(g6
S'pqZ\xb3}\xa2\xfa?'
p3375
tp3376
Rp3377
ag2
(g6
S'\xcc\xdb\x19\x12\xf3v\xf6?'
p3378
tp3379
Rp3380
ag2
(g6
S'\x9e\xf1\x8cg<\xe3\xf9?'
p3381
tp3382
Rp3383
ag2
(g6
S'\x07\xf6\x8e\xa9\x81\xbd\xf3?'
p3384
tp3385
Rp3386
ag2
(g6
S'\x16\xc4\xe4\nbr\xf5?'
p3387
tp3388
Rp3389
ag2
(g6
S'\x9c\x95\x9f\x10g\xe5\xf7?'
p3390
tp3391
Rp3392
ag2
(g6
S']t\xd1E\x17]\xf8?'
p3393
tp3394
Rp3395
ag2
(g6
S'/\xba\xe8\xa2\x8b.\xfa?'
p3396
tp3397
Rp3398
ag2
(g6
S'\x89\x88\x88\x88\x88\x88\xf8?'
p3399
tp3400
Rp3401
ag2
(g6
S'\x05\x04C\xb2E4\xf7?'
p3402
tp3403
Rp3404
ag2
(g6
S',\x05j\xfdJ\x81\xfa?'
p3405
tp3406
Rp3407
ag2
(g6
S'V\x0c\x94\xf0FS\xf7?'
p3408
tp3409
Rp3410
ag2
(g6
S'\xa8\xa6c.\x11\x9e\xf4?'
p3411
tp3412
Rp3413
ag2
(g6
S'(\xaf\xa1\xbc\x86\xf2\xfa?'
p3414
tp3415
Rp3416
ag2
(g6
S'\x9b\x08\xe4\x9a\x08\xe4\xfa?'
p3417
tp3418
Rp3419
ag2
(g6
S'333333\xf7?'
p3420
tp3421
Rp3422
ag2
(g6
S'\x1c\xc7q\x1c\xc7q\xf4?'
p3423
tp3424
Rp3425
ag2
(g6
S'!%\xcf2\xa2\x0f\xf8?'
p3426
tp3427
Rp3428
ag2
(g6
S'r\x1c\xc7q\x1c\xc7\xf5?'
p3429
tp3430
Rp3431
ag2
(g6
S'\x10\t\xbc\xfd\x90\xc0\xfb?'
p3432
tp3433
Rp3434
ag2
(g6
S'(\xaf\xa1\xbc\x86\xf2\xfa?'
p3435
tp3436
Rp3437
ag2
(g6
S'UUUUUU\xf9?'
p3438
tp3439
Rp3440
ag2
(g6
S'%\xa0\x95\x80V\x02\xfa?'
p3441
tp3442
Rp3443
ag2
(g6
S'\xab\xaa\xaa\xaa\xaa\xaa\xf6?'
p3444
tp3445
Rp3446
ag2
(g6
S'UUUUUU\xf3?'
p3447
tp3448
Rp3449
aa(lp3450
F0.08333333333333333
aF0.2833333333333333
aF0.22377622377622378
aF0.2962962962962963
aF0.18248175182481752
aF0.2127659574468085
aF0.13917525773195877
aF0.12871287128712872
aF0.33649289099526064
aF0.225
aF0.28160919540229884
aF0.2
aF0.23880597014925373
aF0.20833333333333334
aF0.3076923076923077
aF0.10416666666666667
aF0.26380368098159507
aF0.2465753424657534
aF0.22142857142857142
aF0.2
aF0.1875
aF0.24210526315789474
aF0.22857142857142856
aF0.3333333333333333
aF0.16129032258064516
aF0.36065573770491804
aF0.21818181818181817
aF0.12280701754385964
aF0.35714285714285715
aF0.22580645161290322
aF0.18493150684931506
aF0.16
aF0.3288590604026846
aF0.07692307692307693
aF0.08139534883720931
aF0.21585903083700442
aF0.22676579925650558
aF0.038461538461538464
aF0.1320754716981132
aF0.0821917808219178
aF0.21428571428571427
aF0.17266187050359713
aF0.23770491803278687
aF0.2169811320754717
aF0.11538461538461539
aF0.2288135593220339
aF0.22448979591836735
aF0.2159090909090909
aF0.07142857142857142
aF0.3
aF0.06818181818181818
aF0.1702127659574468
aF0.1
aF0.11290322580645161
aF0.10596026490066225
aF0.0
aF0.22033898305084745
aF0.13636363636363635
aF0.2328767123287671
aF0.2097902097902098
aF0.27976190476190477
aF0.19161676646706588
aF0.17647058823529413
aF0.2064516129032258
aF0.061855670103092786
aF0.25675675675675674
aF0.26
aF0.22580645161290322
aF0.19607843137254902
aF0.23809523809523808
aF0.17857142857142858
aF0.36363636363636365
aF0.29
aF0.14814814814814814
aF0.1797752808988764
aF0.06666666666666667
aF0.13068181818181818
aF0.3135593220338983
aF0.3870967741935484
aF0.26506024096385544
aF0.2647058823529412
aF0.3103448275862069
aF0.226890756302521
aF0.1596244131455399
aF0.26146788990825687
aF0.23958333333333334
aF0.30158730158730157
aF0.22321428571428573
aF0.24742268041237114
aF0.09433962264150944
aF0.21774193548387097
aF0.18705035971223022
aF0.23703703703703705
aF0.21739130434782608
aF0.20481927710843373
aF0.20202020202020202
aF0.24242424242424243
aF0.15384615384615385
aF0.11764705882352941
aF0.2571428571428571
aF0.1984126984126984
aF0.20689655172413793
aF0.125
aF0.14772727272727273
aF0.15384615384615385
aF0.2807017543859649
aF0.36363636363636365
aF0.22666666666666666
aF0.09523809523809523
aF0.2391304347826087
aF0.1712962962962963
aF0.2857142857142857
aF0.12162162162162163
aF0.1951219512195122
aF0.02564102564102564
aF0.1935483870967742
aF0.26666666666666666
aF0.20945945945945946
aF0.18811881188118812
aF0.2073170731707317
aF0.23255813953488372
aF0.19375
aF0.2857142857142857
aF0.15
aF0.26666666666666666
aF0.21621621621621623
aF0.07042253521126761
aF0.3333333333333333
aF0.09734513274336283
aF0.2727272727272727
aF0.26666666666666666
aF0.16883116883116883
aF0.16393442622950818
aF0.1368421052631579
aF0.26053639846743293
aF0.19117647058823528
aF0.2641509433962264
aF0.0
aF0.2391304347826087
aF0.13861386138613863
aF0.1932367149758454
aF0.23469387755102042
aF0.2
aF0.13793103448275862
aF0.192090395480226
aF0.23376623376623376
aF0.24
aF0.375
aF0.25
aF0.12121212121212122
aF0.39361702127659576
aF0.24770642201834864
aF0.0
aF0.20388349514563106
aF0.23645320197044334
aF0.1951219512195122
aF0.20454545454545456
aF0.17543859649122806
aF0.15469613259668508
aF0.19230769230769232
aF0.08333333333333333
aF0.27011494252873564
aF0.1791044776119403
aF0.20588235294117646
aF0.17575757575757575
aF0.23423423423423423
aF0.0
aF0.2608695652173913
aF0.10909090909090909
aF0.23636363636363636
aF0.23636363636363636
aF0.24444444444444444
aF0.2833333333333333
aF0.10344827586206896
aF0.2236842105263158
aF0.26262626262626265
aF0.25980392156862747
aF0.21794871794871795
aF0.2679738562091503
aF0.1744186046511628
aF0.3333333333333333
aF0.13592233009708737
aF0.21428571428571427
aF0.22388059701492538
aF0.05263157894736842
aF0.2727272727272727
aF0.26666666666666666
aF0.3013698630136986
aF0.2328767123287671
aF0.14634146341463414
aF0.30994152046783624
aF0.2857142857142857
aF0.2
aF0.3191489361702128
aF0.047619047619047616
aF0.251063829787234
aF0.22424242424242424
aF0.20754716981132076
aF0.30864197530864196
aF0.21666666666666667
aF0.15819209039548024
aF0.16666666666666666
aF0.18421052631578946
aF0.0625
aF0.14772727272727273
aF0.14788732394366197
aF0.02857142857142857
aF0.20238095238095238
aF0.2153846153846154
aF0.10784313725490197
aF0.2717391304347826
aF0.17073170731707318
aF0.17647058823529413
aF0.28160919540229884
aF0.10303030303030303
aF0.3404255319148936
aF0.20588235294117646
aF0.15254237288135594
aF0.2857142857142857
aF0.20422535211267606
aF0.2702702702702703
aF0.0
aF0.3333333333333333
aF0.125
aF0.18181818181818182
aF0.10416666666666667
aF0.45652173913043476
aF0.1568627450980392
aF0.18681318681318682
aF0.0967741935483871
aF0.21830985915492956
aF0.05555555555555555
aF0.1111111111111111
aF0.0392156862745098
aF0.1724137931034483
aF0.41379310344827586
aF0.15
aF0.3925925925925926
aF0.29850746268656714
aF0.20754716981132076
aF0.2894736842105263
aF0.14556962025316456
aF0.15151515151515152
aF0.2054794520547945
aF0.06451612903225806
aF0.2934131736526946
aF0.16022099447513813
aF0.3333333333333333
aF0.10294117647058823
aF0.11842105263157894
aF0.13333333333333333
aF0.09523809523809523
aF0.16666666666666666
aF0.12195121951219512
aF0.2828282828282828
aF0.16129032258064516
aF0.12755102040816327
aF0.21428571428571427
aF0.1111111111111111
aF0.17857142857142858
aF0.2702702702702703
aF0.2318840579710145
aF0.4
aF0.2641509433962264
aF0.2037037037037037
aF0.15
aF0.12037037037037036
aF0.3185483870967742
aF0.15503875968992248
aF0.20168067226890757
aF0.18333333333333332
aF0.11650485436893204
aF0.23076923076923078
aF0.2
aF0.12264150943396226
aF0.2572463768115942
aF0.26143790849673204
aF0.2604166666666667
aF0.12359550561797752
aF0.058823529411764705
aF0.16
aF0.058823529411764705
aF0.3333333333333333
aF0.23015873015873015
aF0.11594202898550725
aF0.30275229357798167
aF0.12790697674418605
aF0.16666666666666666
aF0.25
aF0.17985611510791366
aF0.15577889447236182
aF0.175
aF0.24528301886792453
aF0.16666666666666666
aF0.11504424778761062
aF0.17647058823529413
aF0.12727272727272726
aF0.19444444444444445
aF0.17699115044247787
aF0.18032786885245902
aF0.35064935064935066
aF0.13043478260869565
aF0.23387096774193547
aF0.32460732984293195
aF0.3333333333333333
aF0.17647058823529413
aF0.32051282051282054
aF0.14285714285714285
aF0.19230769230769232
aF0.3111111111111111
aF0.09302325581395349
aF0.21052631578947367
aF0.12857142857142856
aF0.2744186046511628
aF0.16417910447761194
aF0.03225806451612903
aF0.16216216216216217
aF0.3023255813953488
aF0.2537313432835821
aF0.13114754098360656
aF0.2894736842105263
aF0.11560693641618497
aF0.16
aF0.2
aF0.1895734597156398
aF0.26666666666666666
aF0.2692307692307692
aF0.17073170731707318
aF0.13333333333333333
aF0.18072289156626506
aF0.2971014492753623
aF0.14814814814814814
aF0.21568627450980393
aF0.0625
aF0.1016949152542373
aF0.26356589147286824
aF0.17777777777777778
aF0.05555555555555555
aF0.1564245810055866
aF0.21739130434782608
aF0.10714285714285714
aF0.22340425531914893
aF0.2087912087912088
aF0.14285714285714285
aF0.2916666666666667
aF0.19393939393939394
aF0.23076923076923078
aF0.1935483870967742
aF0.14814814814814814
aF0.28846153846153844
aF0.2727272727272727
aF0.21052631578947367
aF0.1780821917808219
aF0.235
aF0.18652849740932642
aF0.2702702702702703
aF0.0
aF0.18333333333333332
aF0.24285714285714285
aF0.19138755980861244
aF0.2676056338028169
aF0.1388888888888889
aF0.3333333333333333
aF0.1871345029239766
aF0.2125
aF0.11538461538461539
aF0.20134228187919462
aF0.2857142857142857
aF0.2694063926940639
aF0.2463768115942029
aF0.24561403508771928
aF0.1941747572815534
aF0.14444444444444443
aF0.3230769230769231
aF0.23404255319148937
aF0.19642857142857142
aF0.058823529411764705
aF0.28
aF0.2
aF0.14414414414414414
aF0.28125
aF0.13114754098360656
aF0.256198347107438
aF0.19047619047619047
aF0.1896551724137931
aF0.2727272727272727
aF0.09734513274336283
aF0.25984251968503935
aF0.208955223880597
aF0.14285714285714285
aF0.043478260869565216
aF0.125
aF0.2
aF0.23529411764705882
aF0.18181818181818182
aF0.2074468085106383
aF0.13253012048192772
aF0.22424242424242424
aF0.13114754098360656
aF0.13114754098360656
aF0.2671232876712329
aF0.06896551724137931
aF0.24074074074074073
aF0.1282051282051282
aF0.26732673267326734
aF0.325
aF0.23076923076923078
aF0.30656934306569344
aF0.1346153846153846
aF0.4
aF0.25925925925925924
aF0.19444444444444445
aF0.08695652173913043
aF0.189873417721519
aF0.30952380952380953
aF0.14285714285714285
aF0.18666666666666668
aF0.23333333333333334
aF0.18497109826589594
aF0.27751196172248804
aF0.14285714285714285
aF0.4117647058823529
aF0.18032786885245902
aF0.10344827586206896
aF0.24390243902439024
aF0.24161073825503357
aF0.22388059701492538
aF0.18181818181818182
aF0.17142857142857143
aF0.16216216216216217
aF0.2830188679245283
aF0.125
aF0.21761658031088082
aF0.29310344827586204
aF0.24022346368715083
aF0.1984732824427481
aF0.20430107526881722
aF0.288135593220339
aF0.22666666666666666
aF0.3440366972477064
aF0.2647058823529412
aF0.23026315789473684
aF0.24120603015075376
aF0.32075471698113206
aF0.08823529411764706
aF0.24761904761904763
aF0.19672131147540983
aF0.19047619047619047
aF0.14736842105263157
aF0.17857142857142858
aF0.3473053892215569
aF0.25773195876288657
aF0.23529411764705882
aF0.11585365853658537
aF0.11904761904761904
aF0.26582278481012656
aF0.20614035087719298
aF0.19411764705882353
aF0.23076923076923078
aF0.15
aF0.09090909090909091
aF0.27672955974842767
aF0.18085106382978725
aF0.27184466019417475
aF0.19444444444444445
aF0.24152542372881355
aF0.3
aF0.0967741935483871
aF0.22857142857142856
aF0.16260162601626016
aF0.18055555555555555
aF0.17142857142857143
aF0.19424460431654678
aF0.30357142857142855
aF0.3472222222222222
aF0.13043478260869565
aF0.18181818181818182
aF0.23783783783783785
aF0.19186046511627908
aF0.16
aF0.10204081632653061
aF0.1111111111111111
aF0.08955223880597014
aF0.17777777777777778
aF0.2894736842105263
aF0.22
aF0.22285714285714286
aF0.22916666666666666
aF0.21782178217821782
aF0.21739130434782608
aF0.175
aF0.26153846153846155
aF0.20155038759689922
aF0.23684210526315788
aF0.08333333333333333
aF0.21875
aF0.13432835820895522
aF0.19760479041916168
aF0.10377358490566038
aF0.16666666666666666
aF0.27956989247311825
aF0.271356783919598
aF0.33727810650887574
aF0.10526315789473684
aF0.20987654320987653
aF0.13559322033898305
aF0.25980392156862747
aF0.21019108280254778
aF0.17142857142857143
aF0.2777777777777778
aF0.2301255230125523
aF0.21052631578947367
aF0.18181818181818182
aF0.13709677419354838
aF0.2727272727272727
aF0.17
aF0.17801047120418848
aF0.18487394957983194
aF0.11214953271028037
aF0.15625
aF0.2883435582822086
aF0.17355371900826447
aF0.2
aF0.2247191011235955
aF0.25274725274725274
aF0.16312056737588654
aF0.3548387096774194
aF0.23
aF0.13043478260869565
aF0.2578947368421053
aF0.21951219512195122
aF0.2774566473988439
aF0.16304347826086957
aF0.30952380952380953
aF0.18518518518518517
aF0.16666666666666666
aF0.252212389380531
aF0.041666666666666664
aF0.328125
aF0.32515337423312884
aF0.19230769230769232
aF0.2545454545454545
aF0.25728155339805825
aF0.2702702702702703
aF0.21621621621621623
aF0.22772277227722773
aF0.267515923566879
aF0.09433962264150944
aF0.15730337078651685
aF0.1619718309859155
aF0.17682926829268292
aF0.3119266055045872
aF0.28272251308900526
aF0.12804878048780488
aF0.20967741935483872
aF0.1956521739130435
aF0.25757575757575757
aF0.19480519480519481
aF0.38372093023255816
aF0.20279720279720279
aF0.2823529411764706
aF0.034482758620689655
aF0.1935483870967742
aF0.19138755980861244
aF0.2994011976047904
aF0.225
aF0.2125
aF0.10714285714285714
aF0.16129032258064516
aF0.14728682170542637
aF0.3007518796992481
aF0.10267857142857142
aF0.35
aF0.15151515151515152
aF0.22988505747126436
aF0.1724137931034483
aF0.3157894736842105
aF0.2077922077922078
aF0.25
aF0.20754716981132076
aF0.21666666666666667
aF0.2753623188405797
aF0.3076923076923077
aF0.34951456310679613
aF0.19811320754716982
aF0.2
aF0.26666666666666666
aF0.2
aF0.21212121212121213
aF0.1746031746031746
aF0.203125
aF0.0625
aF0.0625
aF0.07692307692307693
aF0.19607843137254902
aF0.17518248175182483
aF0.22868217054263565
aF0.3302752293577982
aF0.2857142857142857
aF0.24175824175824176
aF0.2
aF0.20192307692307693
aF0.288135593220339
aF0.24812030075187969
aF0.17142857142857143
aF0.28174603174603174
aF0.10204081632653061
aF0.2
aF0.19230769230769232
aF0.30303030303030304
aF0.28125
aF0.22916666666666666
aF0.08695652173913043
aF0.19170984455958548
aF0.2076923076923077
aF0.18571428571428572
aF0.19318181818181818
aF0.10144927536231885
aF0.21666666666666667
aF0.225
aF0.15
aF0.3119266055045872
aF0.34615384615384615
aF0.20245398773006135
aF0.20952380952380953
aF0.2689655172413793
aF0.22727272727272727
aF0.2727272727272727
aF0.26119402985074625
aF0.11363636363636363
aF0.2268041237113402
aF0.26126126126126126
aF0.16666666666666666
aF0.2074074074074074
aF0.24752475247524752
aF0.26785714285714285
aF0.0
aF0.22994652406417113
aF0.0625
aF0.16964285714285715
aF0.2265193370165746
aF0.291866028708134
aF0.1791907514450867
aF0.16363636363636364
aF0.1917808219178082
aF0.16129032258064516
aF0.22556390977443608
aF0.1
aF0.16875
aF0.375
aF0.13636363636363635
aF0.14285714285714285
aF0.1111111111111111
aF0.26136363636363635
aF0.06666666666666667
aF0.047619047619047616
aF0.17757009345794392
aF0.23076923076923078
aF0.3184713375796178
aF0.23129251700680273
aF0.32
aF0.14084507042253522
aF0.1875
aF0.23648648648648649
aF0.3046875
aF0.16071428571428573
aF0.23853211009174313
aF0.1320754716981132
aF0.15217391304347827
aF0.1881720430107527
aF0.09523809523809523
aF0.4074074074074074
aF0.11764705882352941
aF0.26717557251908397
aF0.1511627906976744
aF0.12857142857142856
aF0.09322033898305085
aF0.09375
aF0.21428571428571427
aF0.15625
aF0.22388059701492538
aF0.18604651162790697
aF0.1282051282051282
aF0.23076923076923078
aF0.28346456692913385
aF0.20610687022900764
aF0.26666666666666666
aF0.25252525252525254
aF0.05
aF0.21212121212121213
aF0.16666666666666666
aF0.14444444444444443
aF0.17857142857142858
aF0.26717557251908397
aF0.2830188679245283
aF0.14772727272727273
aF0.22580645161290322
aF0.14035087719298245
aF0.19130434782608696
aF0.2538860103626943
aF0.2073732718894009
aF0.32142857142857145
aF0.16129032258064516
aF0.25833333333333336
aF0.18181818181818182
aF0.10852713178294573
aF0.18604651162790697
aF0.21176470588235294
aF0.16296296296296298
aF0.20945945945945946
aF0.1956521739130435
aF0.16428571428571428
aF0.21875
aF0.3225806451612903
aF0.2345679012345679
aF0.21052631578947367
aF0.25396825396825395
aF0.14864864864864866
aF0.3114754098360656
aF0.10256410256410256
aF0.1
aF0.20276497695852536
aF0.28205128205128205
aF0.21568627450980393
aF0.23684210526315788
aF0.17142857142857143
aF0.16326530612244897
aF0.12222222222222222
aF0.2
aF0.2719298245614035
aF0.22794117647058823
aF0.23333333333333334
aF0.25
aF0.22807017543859648
aF0.27358490566037735
aF0.1111111111111111
aF0.24242424242424243
aF0.22727272727272727
aF0.3076923076923077
aF0.1891891891891892
aF0.2807017543859649
aF0.281437125748503
aF0.1171875
aF0.24858757062146894
aF0.15
aF0.3486238532110092
aF0.15286624203821655
aF0.15
aF0.18410041841004185
aF0.15894039735099338
aF0.16216216216216217
aF0.22950819672131148
aF0.37962962962962965
aF0.2648648648648649
aF0.1875
aF0.1111111111111111
aF0.1889763779527559
aF0.16346153846153846
aF0.16
aF0.13953488372093023
aF0.2875
aF0.2809917355371901
aF0.3018867924528302
aF0.2752808988764045
aF0.2608695652173913
aF0.2894736842105263
aF0.14743589743589744
aF0.14074074074074075
aF0.3673469387755102
aF0.29457364341085274
aF0.23684210526315788
aF0.23684210526315788
aF0.10285714285714286
aF0.05555555555555555
aF0.2644230769230769
aF0.25396825396825395
aF0.25
aF0.16470588235294117
aF0.3220338983050847
aF0.0
aF0.14150943396226415
aF0.2826086956521739
aF0.16091954022988506
aF0.13970588235294118
aF0.21212121212121213
aF0.3560606060606061
aF0.2926829268292683
aF0.22857142857142856
aF0.23529411764705882
aF0.17777777777777778
aF0.18518518518518517
aF0.2261904761904762
aF0.12903225806451613
aF0.1
aF0.29411764705882354
aF0.19607843137254902
aF0.2
aF0.2727272727272727
aF0.22580645161290322
aF0.3448275862068966
aF0.2054794520547945
aF0.2076923076923077
aF0.2631578947368421
aF0.18421052631578946
aF0.16666666666666666
aF0.28125
aF0.21839080459770116
aF0.23333333333333334
aF0.08823529411764706
aF0.20833333333333334
aF0.1366906474820144
aF0.18840579710144928
aF0.21978021978021978
aF0.359375
aF0.22950819672131148
aF0.11282051282051282
aF0.1871345029239766
aF0.23684210526315788
aF0.2169811320754717
aF0.16666666666666666
aF0.14
aF0.2169811320754717
aF0.07692307692307693
aF0.1111111111111111
aF0.14285714285714285
aF0.2391304347826087
aF0.11
aF0.20481927710843373
aF0.2654320987654321
aF0.19047619047619047
aF0.2
aF0.17073170731707318
aF0.23636363636363636
aF0.24271844660194175
aF0.22727272727272727
aF0.30158730158730157
aF0.2692307692307692
aF0.1791044776119403
aF0.16176470588235295
aF0.07692307692307693
aF0.08333333333333333
aF0.24193548387096775
aF0.17391304347826086
aF0.2978723404255319
aF0.3407821229050279
aF0.09302325581395349
aF0.24285714285714285
aF0.15625
aF0.32558139534883723
aF0.16030534351145037
aF0.2753623188405797
aF0.3888888888888889
aF0.17777777777777778
aF0.21014492753623187
aF0.1935483870967742
aF0.09803921568627451
aF0.10416666666666667
aF0.26881720430107525
aF0.1956521739130435
aF0.25888324873096447
aF0.15816326530612246
aF0.18947368421052632
aF0.1643192488262911
aF0.19444444444444445
aF0.21637426900584794
aF0.1527777777777778
aF0.32
aF0.21551724137931033
aF0.08333333333333333
aF0.1978021978021978
aF0.06382978723404255
aF0.1188118811881188
aF0.14130434782608695
aF0.1402439024390244
aF0.34444444444444444
aF0.11682242990654206
aF0.22
aF0.2777777777777778
aF0.1619047619047619
aF0.1875
aF0.13440860215053763
aF0.21551724137931033
aF0.14285714285714285
aF0.2619047619047619
aF0.06779661016949153
aF0.16901408450704225
aF0.16129032258064516
aF0.10576923076923077
aF0.1951219512195122
aF0.20625
aF0.2777777777777778
aF0.17391304347826086
aF0.17197452229299362
aF0.3157894736842105
aF0.2689075630252101
aF0.125
aF0.15942028985507245
aF0.25157232704402516
aF0.272
aF0.2916666666666667
aF0.21621621621621623
aF0.21428571428571427
aF0.10714285714285714
aF0.2727272727272727
aF0.058823529411764705
aF0.28205128205128205
aF0.1746987951807229
aF0.17204301075268819
aF0.15789473684210525
aF0.1320754716981132
aF0.2054794520547945
aF0.14832535885167464
aF0.125
aF0.22727272727272727
aF0.05
aF0.2857142857142857
aF0.24285714285714285
aF0.13793103448275862
aF0.125
aF0.16
aF0.34146341463414637
aF0.04054054054054054
aF0.17391304347826086
aF0.2564102564102564
aF0.2549019607843137
aF0.234375
aF0.1282051282051282
aF0.27848101265822783
aF0.28859060402684567
aF0.17391304347826086
aF0.3333333333333333
aF0.22330097087378642
aF0.16
aF0.2564102564102564
aF0.18867924528301888
aF0.08974358974358974
aF0.17901234567901234
aF0.3167701863354037
aF0.2894736842105263
aF0.22962962962962963
aF0.1943127962085308
aF0.12121212121212122
aF0.14444444444444443
aF0.23316062176165803
aF0.20392156862745098
aF0.23076923076923078
aF0.2571428571428571
aF0.10828025477707007
aF0.3392857142857143
aF0.3
aF0.24050632911392406
aF0.14893617021276595
aF0.06060606060606061
aF0.3305785123966942
aF0.1111111111111111
aF0.23333333333333334
aF0.175
aF0.14285714285714285
aF0.135
aF0.14285714285714285
aF0.2808988764044944
aF0.0975609756097561
aF0.23333333333333334
aF0.13636363636363635
aF0.3783783783783784
aF0.25161290322580643
aF0.22580645161290322
aF0.06796116504854369
aF0.02857142857142857
aF0.13402061855670103
aF0.16891891891891891
aF0.22267206477732793
aF0.2916666666666667
aF0.26666666666666666
aF0.2222222222222222
aF0.32098765432098764
aF0.2692307692307692
aF0.19753086419753085
aF0.1259259259259259
aF0.0
aF0.0
aF0.11764705882352941
aF0.21710526315789475
aF0.2608695652173913
aF0.27419354838709675
aF0.2736842105263158
aF0.08
aF0.20202020202020202
aF0.3076923076923077
aF0.21428571428571427
aF0.16071428571428573
aF0.17045454545454544
aF0.19411764705882353
aF0.14814814814814814
aF0.3181818181818182
aF0.22727272727272727
aF0.07142857142857142
aF0.25
aF0.25136612021857924
aF0.21505376344086022
aF0.2358974358974359
aF0.2916666666666667
aF0.19117647058823528
aF0.44680851063829785
aF0.24050632911392406
aF0.16822429906542055
aF0.26857142857142857
aF0.15217391304347827
aF0.23214285714285715
aF0.2391304347826087
aF0.4117647058823529
aF0.3141025641025641
aF0.29347826086956524
aF0.1
aF0.22807017543859648
aF0.1951219512195122
aF0.14754098360655737
aF0.07142857142857142
aF0.2413793103448276
aF0.06944444444444445
aF0.226890756302521
aF0.2571428571428571
aF0.3316831683168317
aF0.045454545454545456
aF0.17142857142857143
aF0.23333333333333334
aF0.2608695652173913
aF0.16666666666666666
aF0.15151515151515152
aF0.2261904761904762
aF0.06976744186046512
aF0.30666666666666664
aF0.22535211267605634
aF0.19230769230769232
aF0.12857142857142856
aF0.14173228346456693
aF0.11764705882352941
aF0.21428571428571427
aF0.08641975308641975
aF0.2
aF0.1848341232227488
aF0.15151515151515152
aF0.25
aF0.2222222222222222
aF0.3194444444444444
aF0.12857142857142856
aF0.19230769230769232
aF0.11278195488721804
aF0.18072289156626506
aF0.3902439024390244
aF0.11382113821138211
aF0.17391304347826086
aF0.2236842105263158
aF0.0
aF0.06818181818181818
aF0.17543859649122806
aF0.19047619047619047
aF0.1566265060240964
aF0.2441860465116279
aF0.0707070707070707
aF0.1875
aF0.1875
aF0.20588235294117646
aF0.1895424836601307
aF0.18807339449541285
aF0.2
aF0.2542372881355932
aF0.15151515151515152
aF0.10526315789473684
aF0.24770642201834864
aF0.21495327102803738
aF0.14545454545454545
aF0.11510791366906475
aF0.18181818181818182
aF0.2871287128712871
aF0.05128205128205128
aF0.16
aF0.3225806451612903
aF0.2992125984251969
aF0.2830188679245283
aF0.14285714285714285
aF0.10679611650485436
aF0.35353535353535354
aF0.5
aF0.11607142857142858
aF0.2887323943661972
aF0.2716049382716049
aF0.33488372093023255
aF0.22448979591836735
aF0.2868217054263566
aF0.18181818181818182
aF0.2222222222222222
aF0.29017857142857145
aF0.20754716981132076
aF0.1643835616438356
aF0.26666666666666666
aF0.19696969696969696
aF0.32432432432432434
aF0.34375
aF0.24489795918367346
aF0.2046783625730994
aF0.29245283018867924
aF0.17682926829268292
aF0.22535211267605634
aF0.2147239263803681
aF0.2777777777777778
aF0.1016949152542373
aF0.13043478260869565
aF0.20161290322580644
aF0.14444444444444443
aF0.16176470588235295
aF0.3018867924528302
aF0.20454545454545456
aF0.0
aF0.13580246913580246
aF0.16071428571428573
aF0.2077922077922078
aF0.11971830985915492
aF0.1951219512195122
aF0.21428571428571427
aF0.2033898305084746
aF0.14285714285714285
aF0.2994011976047904
aF0.1717171717171717
aF0.23595505617977527
aF0.1038961038961039
aF0.14893617021276595
aF0.19480519480519481
aF0.25
aF0.26136363636363635
aF0.17777777777777778
aF0.18848167539267016
aF0.26262626262626265
aF0.17269076305220885
aF0.10067114093959731
aF0.2857142857142857
aF0.25210084033613445
aF0.19444444444444445
aF0.1111111111111111
aF0.1984732824427481
aF0.12962962962962962
aF0.23893805309734514
aF0.2631578947368421
aF0.20833333333333334
aF0.2694063926940639
aF0.1527777777777778
aF0.08333333333333333
aa(lp3451
I0
aI1
aI1
aI0
aI0
aI0
aI2
aI0
aI7
aI0
aI2
aI4
aI1
aI0
aI0
aI0
aI1
aI0
aI2
aI0
aI0
aI2
aI1
aI4
aI0
aI0
aI6
aI0
aI1
aI1
aI0
aI0
aI4
aI0
aI0
aI1
aI1
aI0
aI0
aI0
aI0
aI2
aI1
aI3
aI1
aI1
aI6
aI1
aI0
aI3
aI0
aI0
aI0
aI0
aI0
aI0
aI1
aI1
aI2
aI2
aI4
aI3
aI1
aI2
aI1
aI1
aI4
aI0
aI0
aI0
aI0
aI3
aI1
aI0
aI2
aI0
aI0
aI3
aI1
aI0
aI1
aI1
aI1
aI0
aI3
aI1
aI0
aI2
aI3
aI0
aI3
aI0
aI1
aI3
aI3
aI2
aI1
aI1
aI0
aI1
aI3
aI0
aI1
aI1
aI0
aI3
aI1
aI2
aI0
aI0
aI0
aI1
aI0
aI1
aI1
aI0
aI0
aI1
aI4
aI0
aI2
aI2
aI2
aI0
aI0
aI1
aI0
aI0
aI1
aI1
aI0
aI0
aI3
aI0
aI5
aI1
aI2
aI0
aI0
aI1
aI2
aI1
aI3
aI0
aI0
aI2
aI3
aI2
aI3
aI0
aI1
aI4
aI0
aI4
aI3
aI1
aI0
aI1
aI2
aI0
aI0
aI6
aI0
aI0
aI0
aI2
aI0
aI1
aI1
aI1
aI2
aI1
aI6
aI0
aI2
aI2
aI3
aI1
aI1
aI0
aI0
aI0
aI0
aI1
aI0
aI7
aI3
aI2
aI1
aI1
aI7
aI0
aI2
aI0
aI1
aI7
aI1
aI1
aI2
aI0
aI2
aI1
aI0
aI0
aI1
aI2
aI0
aI1
aI1
aI0
aI1
aI0
aI0
aI4
aI0
aI2
aI0
aI0
aI1
aI0
aI4
aI0
aI0
aI0
aI4
aI1
aI3
aI0
aI1
aI0
aI5
aI0
aI0
aI0
aI1
aI2
aI0
aI2
aI1
aI0
aI3
aI2
aI0
aI0
aI0
aI1
aI1
aI7
aI0
aI0
aI1
aI0
aI1
aI0
aI0
aI1
aI1
aI1
aI0
aI1
aI2
aI2
aI0
aI2
aI0
aI2
aI0
aI7
aI1
aI0
aI0
aI0
aI2
aI0
aI0
aI1
aI4
aI1
aI0
aI0
aI0
aI0
aI0
aI0
aI0
aI3
aI0
aI0
aI0
aI1
aI0
aI0
aI0
aI0
aI0
aI0
aI1
aI1
aI1
aI2
aI1
aI0
aI2
aI5
aI0
aI0
aI1
aI2
aI0
aI1
aI0
aI1
aI0
aI5
aI0
aI0
aI0
aI0
aI1
aI0
aI2
aI2
aI1
aI1
aI3
aI2
aI0
aI1
aI0
aI1
aI2
aI2
aI2
aI0
aI0
aI1
aI0
aI0
aI2
aI0
aI1
aI1
aI0
aI0
aI1
aI1
aI2
aI3
aI0
aI0
aI2
aI2
aI1
aI0
aI6
aI0
aI0
aI0
aI3
aI2
aI1
aI0
aI0
aI1
aI2
aI0
aI3
aI0
aI2
aI1
aI4
aI0
aI0
aI2
aI1
aI0
aI0
aI0
aI0
aI2
aI3
aI0
aI3
aI0
aI1
aI1
aI0
aI3
aI0
aI0
aI0
aI0
aI1
aI2
aI3
aI1
aI0
aI1
aI0
aI1
aI0
aI2
aI5
aI0
aI2
aI1
aI0
aI3
aI1
aI2
aI4
aI1
aI0
aI1
aI2
aI0
aI0
aI0
aI2
aI3
aI0
aI2
aI0
aI0
aI1
aI2
aI0
aI0
aI0
aI0
aI0
aI0
aI3
aI0
aI0
aI0
aI0
aI1
aI0
aI10
aI1
aI0
aI3
aI1
aI2
aI1
aI4
aI0
aI0
aI1
aI3
aI0
aI0
aI1
aI0
aI0
aI2
aI3
aI1
aI0
aI0
aI3
aI0
aI5
aI1
aI6
aI3
aI0
aI0
aI0
aI0
aI1
aI0
aI4
aI1
aI1
aI0
aI3
aI1
aI2
aI0
aI0
aI0
aI0
aI0
aI1
aI5
aI0
aI1
aI0
aI0
aI0
aI3
aI0
aI0
aI1
aI1
aI0
aI0
aI0
aI1
aI4
aI6
aI0
aI1
aI0
aI6
aI1
aI1
aI0
aI3
aI0
aI3
aI0
aI2
aI1
aI3
aI2
aI1
aI1
aI3
aI1
aI1
aI2
aI0
aI1
aI6
aI3
aI1
aI4
aI0
aI2
aI1
aI2
aI0
aI1
aI0
aI0
aI0
aI5
aI0
aI2
aI2
aI0
aI1
aI4
aI3
aI0
aI1
aI0
aI1
aI8
aI4
aI0
aI4
aI1
aI4
aI2
aI5
aI2
aI2
aI0
aI0
aI2
aI3
aI1
aI0
aI0
aI1
aI2
aI5
aI1
aI0
aI1
aI3
aI2
aI0
aI0
aI0
aI3
aI1
aI1
aI1
aI1
aI1
aI0
aI0
aI3
aI0
aI0
aI3
aI0
aI0
aI0
aI0
aI2
aI4
aI5
aI5
aI1
aI0
aI1
aI2
aI3
aI1
aI5
aI0
aI2
aI1
aI2
aI1
aI5
aI0
aI1
aI2
aI2
aI0
aI0
aI1
aI1
aI0
aI5
aI1
aI0
aI2
aI4
aI3
aI0
aI1
aI0
aI2
aI1
aI1
aI1
aI6
aI0
aI0
aI4
aI0
aI1
aI1
aI2
aI1
aI0
aI0
aI0
aI3
aI0
aI1
aI1
aI0
aI0
aI0
aI3
aI0
aI0
aI1
aI0
aI2
aI5
aI5
aI0
aI2
aI3
aI2
aI3
aI1
aI0
aI0
aI1
aI0
aI1
aI1
aI1
aI0
aI2
aI0
aI0
aI0
aI1
aI2
aI1
aI1
aI3
aI3
aI5
aI0
aI2
aI0
aI2
aI0
aI0
aI0
aI2
aI1
aI1
aI3
aI0
aI5
aI4
aI4
aI1
aI0
aI2
aI0
aI0
aI0
aI2
aI1
aI6
aI1
aI0
aI0
aI1
aI0
aI3
aI3
aI1
aI0
aI0
aI0
aI0
aI1
aI2
aI2
aI1
aI0
aI1
aI4
aI2
aI0
aI0
aI1
aI1
aI0
aI0
aI1
aI0
aI3
aI0
aI2
aI2
aI0
aI3
aI1
aI4
aI0
aI1
aI1
aI0
aI0
aI2
aI2
aI2
aI0
aI0
aI1
aI1
aI0
aI1
aI3
aI3
aI3
aI4
aI0
aI1
aI0
aI1
aI2
aI1
aI2
aI0
aI1
aI0
aI2
aI3
aI0
aI0
aI4
aI0
aI0
aI2
aI0
aI4
aI0
aI5
aI1
aI1
aI0
aI0
aI2
aI1
aI0
aI0
aI1
aI0
aI0
aI1
aI3
aI2
aI0
aI2
aI2
aI0
aI1
aI3
aI2
aI2
aI0
aI0
aI0
aI0
aI2
aI5
aI1
aI2
aI2
aI0
aI1
aI0
aI1
aI4
aI0
aI0
aI0
aI4
aI2
aI3
aI4
aI0
aI2
aI1
aI0
aI2
aI0
aI2
aI3
aI1
aI1
aI0
aI0
aI0
aI0
aI1
aI6
aI0
aI2
aI0
aI3
aI1
aI0
aI9
aI0
aI2
aI0
aI0
aI0
aI2
aI0
aI0
aI4
aI1
aI2
aI0
aI1
aI1
aI0
aI1
aI1
aI0
aI0
aI1
aI1
aI0
aI3
aI1
aI2
aI0
aI0
aI0
aI1
aI0
aI0
aI0
aI0
aI0
aI0
aI0
aI3
aI1
aI1
aI1
aI1
aI1
aI1
aI0
aI0
aI2
aI0
aI2
aI0
aI1
aI0
aI0
aI0
aI0
aI1
aI0
aI2
aI0
aI1
aI1
aI0
aI0
aI0
aI0
aI2
aI0
aI0
aI1
aI0
aI0
aI0
aI1
aI2
aI0
aI1
aI1
aI3
aI1
aI0
aI4
aI0
aI0
aI0
aI1
aI3
aI4
aI2
aI1
aI1
aI0
aI0
aI2
aI1
aI0
aI4
aI1
aI2
aI0
aI1
aI1
aI0
aI2
aI0
aI0
aI2
aI0
aI0
aI1
aI2
aI0
aI1
aI1
aI0
aI3
aI0
aI1
aI0
aI0
aI1
aI4
aI0
aI1
aI1
aI0
aI2
aI0
aI0
aI0
aI0
aI2
aI3
aI0
aI2
aI4
aI0
aI2
aI2
aI0
aI0
aI0
aI4
aI1
aI1
aI3
aI0
aI3
aI2
aI1
aI4
aI1
aI2
aI2
aI1
aI2
aI2
aI1
aI1
aI0
aI0
aI4
aI6
aI0
aI1
aI1
aI1
aI0
aI0
aI1
aI3
aI1
aI8
aI0
aI0
aI1
aI2
aI1
aI1
aI1
aI0
aI4
aI1
aI2
aI0
aI2
aI0
aI1
aI0
aI3
aI2
aI0
aI0
aI0
aI0
aI2
aI1
aI0
aI0
aI0
aI0
aI1
aI3
aI0
aI0
aI0
aI0
aI0
aI0
aI0
aI0
aI0
aI0
aI0
aI5
aI0
aI0
aI1
aI0
aI3
aI1
aI2
aI1
aI0
aI3
aI0
aI5
aI2
aI2
aI3
aI2
aI0
aI6
aI1
aI2
aI3
aI1
aI7
aI0
aI1
aI0
aI1
aI3
aI2
aI2
aI0
aI1
aI5
aI2
aI0
aI4
aI1
aI0
aI1
aI2
aI0
aI0
aI0
aI0
aI1
aI1
aI2
aI0
aI0
aI0
aI0
aI2
aI0
aI2
aI1
aI0
aI0
aI3
aI1
aI1
aI0
aI1
aI0
aI1
aI3
aI1
aI6
aI1
aI2
aI0
aI3
aI3
aI2
aI0
aI0
aI1
aI4
aI0
aI0
aI9
aI1
aI0
aa(lp3452
I4
aI1
aI5
aI4
aI9
aI5
aI8
aI3
aI7
aI2
aI6
aI1
aI2
aI0
aI0
aI6
aI8
aI3
aI11
aI0
aI2
aI1
aI2
aI2
aI0
aI0
aI9
aI3
aI0
aI5
aI2
aI1
aI1
aI2
aI4
aI5
aI4
aI4
aI5
aI5
aI1
aI5
aI5
aI2
aI1
aI5
aI10
aI6
aI3
aI1
aI4
aI5
aI2
aI2
aI10
aI0
aI6
aI1
aI10
aI7
aI3
aI7
aI2
aI3
aI6
aI1
aI3
aI1
aI2
aI0
aI1
aI2
aI6
aI4
aI3
aI4
aI7
aI4
aI0
aI2
aI0
aI1
aI4
aI11
aI8
aI4
aI3
aI4
aI4
aI1
aI4
aI7
aI5
aI6
aI11
aI2
aI3
aI3
aI3
aI4
aI6
aI2
aI2
aI4
aI2
aI2
aI0
aI1
aI3
aI3
aI6
aI0
aI2
aI3
aI1
aI3
aI4
aI4
aI4
aI3
aI5
aI12
aI2
aI0
aI0
aI10
aI2
aI1
aI5
aI3
aI0
aI2
aI9
aI2
aI8
aI1
aI3
aI1
aI0
aI2
aI7
aI6
aI2
aI1
aI11
aI3
aI3
aI1
aI1
aI4
aI1
aI5
aI1
aI4
aI5
aI3
aI2
aI4
aI6
aI5
aI1
aI10
aI4
aI3
aI12
aI4
aI3
aI0
aI3
aI0
aI1
aI1
aI5
aI2
aI6
aI3
aI6
aI6
aI4
aI2
aI1
aI2
aI0
aI4
aI4
aI10
aI5
aI3
aI6
aI8
aI2
aI1
aI3
aI0
aI1
aI7
aI4
aI4
aI2
aI5
aI6
aI2
aI3
aI0
aI6
aI2
aI1
aI1
aI3
aI3
aI3
aI2
aI0
aI5
aI11
aI0
aI2
aI0
aI4
aI4
aI2
aI1
aI0
aI2
aI12
aI1
aI0
aI1
aI2
aI3
aI7
aI2
aI1
aI2
aI2
aI2
aI2
aI3
aI1
aI1
aI4
aI15
aI2
aI6
aI0
aI3
aI7
aI2
aI4
aI3
aI1
aI0
aI6
aI7
aI6
aI3
aI7
aI1
aI0
aI7
aI1
aI6
aI2
aI1
aI4
aI1
aI3
aI12
aI6
aI1
aI5
aI5
aI4
aI0
aI11
aI6
aI7
aI7
aI5
aI3
aI1
aI0
aI0
aI4
aI6
aI2
aI3
aI0
aI1
aI5
aI14
aI5
aI2
aI0
aI4
aI2
aI2
aI0
aI4
aI1
aI0
aI0
aI7
aI2
aI0
aI0
aI3
aI5
aI2
aI3
aI1
aI0
aI4
aI2
aI6
aI1
aI1
aI3
aI3
aI5
aI2
aI7
aI1
aI5
aI6
aI1
aI3
aI4
aI2
aI4
aI4
aI2
aI3
aI1
aI4
aI5
aI1
aI3
aI8
aI10
aI3
aI0
aI1
aI3
aI1
aI4
aI0
aI4
aI0
aI10
aI9
aI2
aI1
aI3
aI9
aI5
aI0
aI2
aI4
aI8
aI3
aI1
aI1
aI5
aI1
aI4
aI8
aI0
aI3
aI4
aI3
aI5
aI3
aI1
aI2
aI0
aI2
aI0
aI3
aI7
aI4
aI3
aI7
aI1
aI1
aI3
aI8
aI6
aI3
aI0
aI1
aI0
aI0
aI1
aI9
aI5
aI13
aI5
aI2
aI13
aI6
aI3
aI4
aI1
aI5
aI1
aI6
aI3
aI2
aI1
aI2
aI1
aI1
aI1
aI1
aI0
aI5
aI1
aI7
aI9
aI2
aI1
aI3
aI1
aI1
aI5
aI2
aI2
aI0
aI4
aI1
aI2
aI7
aI0
aI3
aI3
aI3
aI3
aI2
aI7
aI6
aI5
aI5
aI2
aI9
aI5
aI4
aI1
aI5
aI3
aI2
aI2
aI2
aI5
aI3
aI1
aI14
aI6
aI6
aI9
aI1
aI2
aI11
aI4
aI6
aI8
aI4
aI3
aI1
aI7
aI5
aI5
aI4
aI0
aI2
aI4
aI0
aI6
aI6
aI5
aI4
aI1
aI6
aI2
aI5
aI4
aI4
aI2
aI2
aI0
aI4
aI1
aI1
aI2
aI1
aI1
aI4
aI6
aI11
aI0
aI1
aI5
aI4
aI1
aI7
aI6
aI5
aI3
aI4
aI0
aI11
aI1
aI3
aI6
aI4
aI3
aI6
aI2
aI7
aI4
aI8
aI6
aI4
aI2
aI5
aI6
aI5
aI2
aI8
aI10
aI0
aI7
aI6
aI3
aI2
aI1
aI12
aI1
aI2
aI2
aI2
aI2
aI3
aI3
aI6
aI5
aI2
aI2
aI2
aI7
aI6
aI5
aI9
aI3
aI3
aI8
aI2
aI6
aI5
aI7
aI6
aI1
aI2
aI12
aI4
aI2
aI0
aI1
aI4
aI4
aI1
aI13
aI1
aI8
aI2
aI6
aI2
aI1
aI1
aI2
aI2
aI2
aI1
aI3
aI3
aI1
aI0
aI8
aI4
aI1
aI2
aI2
aI0
aI0
aI0
aI5
aI7
aI8
aI3
aI3
aI2
aI6
aI4
aI4
aI1
aI6
aI2
aI8
aI1
aI0
aI1
aI8
aI3
aI4
aI2
aI0
aI2
aI4
aI3
aI1
aI0
aI3
aI2
aI9
aI6
aI3
aI6
aI1
aI3
aI0
aI5
aI7
aI4
aI9
aI5
aI1
aI0
aI6
aI5
aI7
aI7
aI9
aI9
aI2
aI2
aI2
aI5
aI5
aI6
aI0
aI6
aI1
aI4
aI5
aI2
aI2
aI13
aI0
aI5
aI2
aI9
aI1
aI0
aI1
aI2
aI10
aI3
aI4
aI1
aI9
aI1
aI1
aI1
aI6
aI5
aI4
aI6
aI2
aI3
aI5
aI2
aI5
aI2
aI2
aI6
aI12
aI0
aI3
aI1
aI8
aI2
aI1
aI3
aI3
aI4
aI4
aI5
aI2
aI13
aI5
aI6
aI0
aI3
aI3
aI3
aI5
aI2
aI7
aI6
aI12
aI5
aI11
aI2
aI0
aI1
aI4
aI9
aI8
aI3
aI3
aI1
aI7
aI3
aI3
aI6
aI2
aI4
aI4
aI8
aI1
aI5
aI2
aI3
aI2
aI1
aI0
aI3
aI3
aI2
aI0
aI1
aI8
aI2
aI8
aI1
aI2
aI5
aI3
aI4
aI8
aI2
aI3
aI1
aI2
aI2
aI4
aI7
aI4
aI1
aI3
aI4
aI5
aI6
aI7
aI0
aI0
aI3
aI4
aI1
aI2
aI5
aI3
aI8
aI1
aI6
aI4
aI5
aI4
aI2
aI0
aI4
aI1
aI4
aI8
aI1
aI2
aI2
aI5
aI1
aI2
aI3
aI4
aI4
aI1
aI1
aI1
aI1
aI2
aI8
aI3
aI0
aI5
aI6
aI3
aI0
aI4
aI1
aI0
aI2
aI4
aI4
aI5
aI4
aI2
aI8
aI10
aI7
aI5
aI1
aI8
aI2
aI7
aI2
aI9
aI6
aI3
aI2
aI5
aI4
aI1
aI3
aI4
aI3
aI5
aI4
aI2
aI2
aI2
aI2
aI0
aI1
aI0
aI0
aI1
aI4
aI5
aI5
aI5
aI1
aI5
aI4
aI6
aI3
aI7
aI3
aI9
aI1
aI3
aI2
aI7
aI14
aI7
aI9
aI3
aI4
aI10
aI1
aI4
aI0
aI6
aI4
aI9
aI3
aI14
aI0
aI4
aI11
aI2
aI4
aI4
aI10
aI3
aI2
aI2
aI1
aI3
aI1
aI1
aI7
aI9
aI2
aI1
aI11
aI1
aI1
aI3
aI0
aI4
aI2
aI5
aI1
aI3
aI4
aI1
aI0
aI1
aI6
aI5
aI0
aI8
aI1
aI5
aI2
aI0
aI0
aI5
aI2
aI6
aI1
aI4
aI0
aI6
aI2
aI4
aI6
aI3
aI1
aI5
aI3
aI4
aI0
aI9
aI2
aI0
aI1
aI6
aI4
aI6
aI2
aI5
aI5
aI4
aI1
aI1
aI16
aI1
aI7
aI8
aI0
aI1
aI5
aI3
aI9
aI3
aI2
aI3
aI2
aI1
aI12
aI8
aI1
aI4
aI1
aI2
aI0
aI2
aI1
aI4
aI3
aI8
aI11
aI15
aI0
aI2
aI7
aI3
aI3
aI3
aI5
aI1
aI1
aI9
aI4
aI1
aI3
aI4
aI5
aI4
aI2
aI2
aI3
aI8
aI5
aI0
aI2
aI0
aI0
aI6
aI7
aI5
aI9
aI2
aI11
aI1
aI2
aI2
aI10
aI1
aI5
aI0
aI0
aI4
aI7
aI2
aI1
aI3
aI2
aI0
aI3
aI1
aI2
aI0
aI4
aI0
aI2
aI7
aI2
aI1
aI7
aI0
aI2
aI2
aI2
aI3
aI6
aI2
aI0
aI3
aI6
aI3
aI7
aI2
aI0
aI6
aI2
aI2
aI3
aI4
aI4
aI1
aI14
aI2
aI5
aI1
aI0
aI3
aI0
aI6
aI8
aI4
aI4
aI1
aI1
aI9
aI3
aI1
aI3
aI3
aI1
aI3
aI2
aI4
aI5
aI1
aI3
aI0
aI12
aI0
aI7
aI3
aI1
aI4
aI4
aI0
aI4
aI4
aI3
aI4
aI0
aI6
aI0
aI3
aI7
aI1
aI6
aI0
aI0
aI1
aI4
aI1
aI12
aI7
aI5
aI7
aI6
aI1
aI2
aI1
aI3
aI4
aI4
aI3
aI1
aI0
aI2
aI3
aI4
aI6
aI0
aI3
aI1
aI3
aI6
aI7
aI3
aI7
aI1
aI1
aI4
aI3
aI1
aI10
aI3
aI10
aI10
aI3
aI3
aI9
aI1
aI3
aI3
aI0
aI1
aI1
aI7
aI0
aI0
aa(lp3453
F0.0
aF0.016666666666666666
aF0.006993006993006993
aF0.0
aF0.0
aF0.0
aF0.010309278350515464
aF0.0
aF0.03317535545023697
aF0.0
aF0.011494252873563218
aF0.047058823529411764
aF0.014925373134328358
aF0.0
aF0.0
aF0.0
aF0.006134969325153374
aF0.0
aF0.014285714285714285
aF0.0
aF0.0
aF0.021052631578947368
aF0.02857142857142857
aF0.02564102564102564
aF0.0
aF0.0
aF0.02727272727272727
aF0.0
aF0.03571428571428571
aF0.0064516129032258064
aF0.0
aF0.0
aF0.026845637583892617
aF0.0
aF0.0
aF0.004405286343612335
aF0.0037174721189591076
aF0.0
aF0.0
aF0.0
aF0.0
aF0.014388489208633094
aF0.00819672131147541
aF0.02830188679245283
aF0.019230769230769232
aF0.00847457627118644
aF0.024489795918367346
aF0.011363636363636364
aF0.0
aF0.03
aF0.0
aF0.0
aF0.0
aF0.0
aF0.0
aF0.0
aF0.00847457627118644
aF0.022727272727272728
aF0.0136986301369863
aF0.013986013986013986
aF0.023809523809523808
aF0.017964071856287425
aF0.0196078431372549
aF0.012903225806451613
aF0.010309278350515464
aF0.013513513513513514
aF0.02666666666666667
aF0.0
aF0.0
aF0.0
aF0.0
aF0.03409090909090909
aF0.01
aF0.0
aF0.011235955056179775
aF0.0
aF0.0
aF0.025423728813559324
aF0.03225806451612903
aF0.0
aF0.029411764705882353
aF0.017241379310344827
aF0.008403361344537815
aF0.0
aF0.013761467889908258
aF0.010416666666666666
aF0.0
aF0.017857142857142856
aF0.030927835051546393
aF0.0
aF0.024193548387096774
aF0.0
aF0.007407407407407408
aF0.018633540372670808
aF0.018072289156626505
aF0.010101010101010102
aF0.030303030303030304
aF0.01282051282051282
aF0.0
aF0.014285714285714285
aF0.023809523809523808
aF0.0
aF0.017857142857142856
aF0.011363636363636364
aF0.0
aF0.05263157894736842
aF0.045454545454545456
aF0.013333333333333334
aF0.0
aF0.0
aF0.0
aF0.017857142857142856
aF0.0
aF0.012195121951219513
aF0.02564102564102564
aF0.0
aF0.0
aF0.006756756756756757
aF0.019801980198019802
aF0.0
aF0.009302325581395349
aF0.0125
aF0.031746031746031744
aF0.0
aF0.0
aF0.006756756756756757
aF0.0
aF0.0
aF0.008849557522123894
aF0.012987012987012988
aF0.0
aF0.0
aF0.012295081967213115
aF0.0
aF0.019157088122605363
aF0.014705882352941176
aF0.03773584905660377
aF0.0
aF0.0
aF0.009900990099009901
aF0.00966183574879227
aF0.00510204081632653
aF0.03529411764705882
aF0.0
aF0.0
aF0.025974025974025976
aF0.02
aF0.041666666666666664
aF0.03
aF0.0
aF0.010638297872340425
aF0.03669724770642202
aF0.0
aF0.038834951456310676
aF0.014778325123152709
aF0.024390243902439025
aF0.0
aF0.017543859649122806
aF0.011049723756906077
aF0.0
aF0.0
aF0.034482758620689655
aF0.0
aF0.0
aF0.0
aF0.018018018018018018
aF0.0
aF0.043478260869565216
aF0.01818181818181818
aF0.01818181818181818
aF0.03636363636363636
aF0.022222222222222223
aF0.03333333333333333
aF0.0
aF0.013157894736842105
aF0.020202020202020204
aF0.014705882352941176
aF0.00641025641025641
aF0.006535947712418301
aF0.0
aF0.0
aF0.0
aF0.0
aF0.014925373134328358
aF0.0
aF0.031818181818181815
aF0.016666666666666666
aF0.0136986301369863
aF0.0136986301369863
aF0.008130081300813009
aF0.04093567251461988
aF0.0
aF0.05714285714285714
aF0.0
aF0.047619047619047616
aF0.029787234042553193
aF0.006060606060606061
aF0.009433962264150943
aF0.024691358024691357
aF0.0
aF0.011299435028248588
aF0.013888888888888888
aF0.0
aF0.0
aF0.011363636363636364
aF0.014084507042253521
aF0.0
aF0.011904761904761904
aF0.015384615384615385
aF0.0
aF0.010869565217391304
aF0.0
aF0.0
aF0.022988505747126436
aF0.0
aF0.0425531914893617
aF0.0
aF0.0
aF0.012987012987012988
aF0.0
aF0.10810810810810811
aF0.0
aF0.0
aF0.0
aF0.017316017316017316
aF0.020833333333333332
aF0.06521739130434782
aF0.0
aF0.01098901098901099
aF0.0
aF0.035211267605633804
aF0.0
aF0.0
aF0.0
aF0.034482758620689655
aF0.034482758620689655
aF0.0
aF0.014814814814814815
aF0.014925373134328358
aF0.0
aF0.02631578947368421
aF0.012658227848101266
aF0.0
aF0.0
aF0.0
aF0.005988023952095809
aF0.0055248618784530384
aF0.08641975308641975
aF0.0
aF0.0
aF0.03333333333333333
aF0.0
aF0.011904761904761904
aF0.0
aF0.0
aF0.016129032258064516
aF0.00510204081632653
aF0.017857142857142856
aF0.0
aF0.011904761904761904
aF0.02702702702702703
aF0.028985507246376812
aF0.0
aF0.03773584905660377
aF0.0
aF0.03333333333333333
aF0.0
aF0.028225806451612902
aF0.007751937984496124
aF0.0
aF0.0
aF0.0
aF0.038461538461538464
aF0.0
aF0.0
aF0.0036231884057971015
aF0.026143790849673203
aF0.010416666666666666
aF0.0
aF0.0
aF0.0
aF0.0
aF0.0
aF0.0
aF0.0
aF0.027522935779816515
aF0.0
aF0.0
aF0.0
aF0.007194244604316547
aF0.0
aF0.0
aF0.0
aF0.0
aF0.0
aF0.0
aF0.01818181818181818
aF0.027777777777777776
aF0.008849557522123894
aF0.03278688524590164
aF0.012987012987012988
aF0.0
aF0.016129032258064516
aF0.02617801047120419
aF0.0
aF0.0
aF0.01282051282051282
aF0.010582010582010581
aF0.0
aF0.011111111111111112
aF0.0
aF0.05263157894736842
aF0.0
aF0.023255813953488372
aF0.0
aF0.0
aF0.0
aF0.0
aF0.007462686567164179
aF0.0
aF0.05263157894736842
aF0.011560693641618497
aF0.04
aF0.005714285714285714
aF0.014218009478672985
aF0.06666666666666667
aF0.0
aF0.024390243902439025
aF0.0
aF0.012048192771084338
aF0.014492753623188406
aF0.024691358024691357
aF0.0392156862745098
aF0.0
aF0.0
aF0.007751937984496124
aF0.0
aF0.0
aF0.0111731843575419
aF0.0
aF0.011904761904761904
aF0.010638297872340425
aF0.0
aF0.0
aF0.041666666666666664
aF0.006060606060606061
aF0.07692307692307693
aF0.03225806451612903
aF0.0
aF0.0
aF0.0106951871657754
aF0.05263157894736842
aF0.0136986301369863
aF0.0
aF0.031088082901554404
aF0.0
aF0.0
aF0.0
aF0.02142857142857143
aF0.009569377990430622
aF0.014084507042253521
aF0.0
aF0.0
aF0.005847953216374269
aF0.025
aF0.0
aF0.020134228187919462
aF0.0
aF0.0091324200913242
aF0.014492753623188406
aF0.07017543859649122
aF0.0
aF0.0
aF0.03076923076923077
aF0.02127659574468085
aF0.0
aF0.0
aF0.0
aF0.0
aF0.018018018018018018
aF0.03125
aF0.0
aF0.012396694214876033
aF0.0
aF0.017241379310344827
aF0.012987012987012988
aF0.0
aF0.023622047244094488
aF0.0
aF0.0
aF0.0
aF0.0
aF0.04
aF0.11764705882352941
aF0.01818181818181818
aF0.005319148936170213
aF0.0
aF0.006060606060606061
aF0.0
aF0.00546448087431694
aF0.0
aF0.034482758620689655
aF0.030864197530864196
aF0.0
aF0.019801980198019802
aF0.025
aF0.0
aF0.021897810218978103
aF0.019230769230769232
aF0.1
aF0.04938271604938271
aF0.027777777777777776
aF0.0
aF0.012658227848101266
aF0.047619047619047616
aF0.0
aF0.0
aF0.0
aF0.011560693641618497
aF0.014354066985645933
aF0.0
aF0.058823529411764705
aF0.0
aF0.0
aF0.024390243902439025
aF0.013422818791946308
aF0.0
aF0.0
aF0.0
aF0.0
aF0.0
aF0.0
aF0.015544041450777202
aF0.0
aF0.0
aF0.0
aF0.0
aF0.01694915254237288
aF0.0
aF0.045871559633027525
aF0.004901960784313725
aF0.0
aF0.01507537688442211
aF0.018867924528301886
aF0.014705882352941176
aF0.009523809523809525
aF0.03278688524590164
aF0.0
aF0.0
aF0.011904761904761904
aF0.017964071856287425
aF0.0
aF0.0
aF0.006097560975609756
aF0.0
aF0.0
aF0.008771929824561403
aF0.01764705882352941
aF0.019230769230769232
aF0.0
aF0.0
aF0.018867924528301886
aF0.0
aF0.04854368932038835
aF0.006944444444444444
aF0.025423728813559324
aF0.02727272727272727
aF0.0
aF0.0
aF0.0
aF0.0
aF0.014285714285714285
aF0.0
aF0.023809523809523808
aF0.013888888888888888
aF0.014492753623188406
aF0.0
aF0.016216216216216217
aF0.005813953488372093
aF0.016
aF0.0
aF0.0
aF0.0
aF0.0
aF0.0
aF0.01
aF0.02857142857142857
aF0.0
aF0.009900990099009901
aF0.0
aF0.0
aF0.0
aF0.023255813953488372
aF0.0
aF0.0
aF0.03125
aF0.007462686567164179
aF0.0
aF0.0
aF0.0
aF0.010752688172043012
aF0.020100502512562814
aF0.03550295857988166
aF0.0
aF0.006172839506172839
aF0.0
aF0.029411764705882353
aF0.006369426751592357
aF0.02857142857142857
aF0.0
aF0.012552301255230125
aF0.0
aF0.03896103896103896
aF0.0
aF0.03636363636363636
aF0.01
aF0.015706806282722512
aF0.01680672268907563
aF0.009345794392523364
aF0.0078125
aF0.018404907975460124
aF0.008264462809917356
aF0.01818181818181818
aF0.02247191011235955
aF0.0
aF0.0070921985815602835
aF0.03870967741935484
aF0.03
aF0.010869565217391304
aF0.021052631578947368
aF0.0
aF0.011560693641618497
aF0.010869565217391304
aF0.023809523809523808
aF0.0
aF0.041666666666666664
aF0.0
aF0.0
aF0.0
aF0.03067484662576687
aF0.0
aF0.03636363636363636
aF0.009708737864077669
aF0.0
aF0.009009009009009009
aF0.019801980198019802
aF0.01910828025477707
aF0.0
aF0.011235955056179775
aF0.0
aF0.006097560975609756
aF0.03669724770642202
aF0.020942408376963352
aF0.0
aF0.06451612903225806
aF0.010869565217391304
aF0.030303030303030304
aF0.025974025974025976
aF0.05813953488372093
aF0.013986013986013986
aF0.023529411764705882
aF0.0
aF0.0
aF0.009569377990430622
aF0.017964071856287425
aF0.025
aF0.0
aF0.0
aF0.010752688172043012
aF0.015503875968992248
aF0.03759398496240601
aF0.004464285714285714
aF0.0
aF0.007575757575757576
aF0.034482758620689655
aF0.013793103448275862
aF0.0
aF0.0
aF0.0
aF0.02830188679245283
aF0.016666666666666666
aF0.014492753623188406
aF0.009615384615384616
aF0.009708737864077669
aF0.009433962264150943
aF0.0
aF0.0
aF0.03529411764705882
aF0.0
aF0.0
aF0.046875
aF0.0
aF0.0
aF0.0
aF0.0
aF0.014598540145985401
aF0.015503875968992248
aF0.022935779816513763
aF0.08928571428571429
aF0.01098901098901099
aF0.0
aF0.009615384615384616
aF0.01694915254237288
aF0.022556390977443608
aF0.02857142857142857
aF0.01984126984126984
aF0.0
aF0.02
aF0.01282051282051282
aF0.020202020202020204
aF0.015625
aF0.020833333333333332
aF0.0
aF0.0051813471502590676
aF0.015384615384615385
aF0.02857142857142857
aF0.0
aF0.0
aF0.005555555555555556
aF0.025
aF0.0
aF0.045871559633027525
aF0.019230769230769232
aF0.0
aF0.01904761904761905
aF0.027586206896551724
aF0.015151515151515152
aF0.0
aF0.007462686567164179
aF0.0
aF0.020618556701030927
aF0.009009009009009009
aF0.016666666666666666
aF0.007407407407407408
aF0.0594059405940594
aF0.0
aF0.0
aF0.0213903743315508
aF0.0
aF0.008928571428571428
aF0.0055248618784530384
aF0.009569377990430622
aF0.005780346820809248
aF0.0
aF0.0
aF0.0
aF0.022556390977443608
aF0.0
aF0.00625
aF0.041666666666666664
aF0.0
aF0.0
aF0.0
aF0.017045454545454544
aF0.0
aF0.0
aF0.004672897196261682
aF0.0
aF0.012738853503184714
aF0.034013605442176874
aF0.02857142857142857
aF0.0
aF0.0625
aF0.02027027027027027
aF0.015625
aF0.017857142857142856
aF0.009174311926605505
aF0.0
aF0.0
aF0.005376344086021506
aF0.0
aF0.018518518518518517
aF0.014705882352941176
aF0.007633587786259542
aF0.0
aF0.02857142857142857
aF0.0
aF0.0
aF0.0
aF0.010416666666666666
aF0.029850746268656716
aF0.023255813953488372
aF0.01282051282051282
aF0.038461538461538464
aF0.023622047244094488
aF0.019083969465648856
aF0.0
aF0.020202020202020204
aF0.0
aF0.012121212121212121
aF0.0
aF0.0
aF0.0
aF0.015267175572519083
aF0.009433962264150943
aF0.005681818181818182
aF0.04838709677419355
aF0.0
aF0.021739130434782608
aF0.02072538860103627
aF0.018433179723502304
aF0.03571428571428571
aF0.0
aF0.016666666666666666
aF0.0
aF0.0
aF0.0
aF0.023529411764705882
aF0.007407407407407408
aF0.04054054054054054
aF0.021739130434782608
aF0.0
aF0.0
aF0.03225806451612903
aF0.0
aF0.039473684210526314
aF0.023809523809523808
aF0.0045045045045045045
aF0.0
aF0.0
aF0.0
aF0.0
aF0.01282051282051282
aF0.013071895424836602
aF0.02631578947368421
aF0.02857142857142857
aF0.0
aF0.011111111111111112
aF0.0163265306122449
aF0.017543859649122806
aF0.0
aF0.0
aF0.016666666666666666
aF0.005847953216374269
aF0.0
aF0.0
aF0.015151515151515152
aF0.0
aF0.028846153846153848
aF0.0
aF0.03508771929824561
aF0.011976047904191617
aF0.0
aF0.01694915254237288
aF0.05
aF0.03669724770642202
aF0.0
aF0.016666666666666666
aF0.0041841004184100415
aF0.0
aF0.0
aF0.01092896174863388
aF0.018518518518518517
aF0.010810810810810811
aF0.0
aF0.0
aF0.007874015748031496
aF0.009615384615384616
aF0.0
aF0.023255813953488372
aF0.0375
aF0.024793388429752067
aF0.05660377358490566
aF0.02247191011235955
aF0.0
aF0.013157894736842105
aF0.0
aF0.007407407407407408
aF0.04081632653061224
aF0.007751937984496124
aF0.010526315789473684
aF0.0
aF0.005714285714285714
aF0.0
aF0.009615384615384616
aF0.023809523809523808
aF0.0
aF0.0
aF0.06779661016949153
aF0.0
aF0.0
aF0.021739130434782608
aF0.0
aF0.029411764705882353
aF0.0
aF0.03787878787878788
aF0.024390243902439025
aF0.009523809523809525
aF0.0
aF0.0
aF0.037037037037037035
aF0.011904761904761904
aF0.0
aF0.0
aF0.029411764705882353
aF0.0
aF0.0
aF0.030303030303030304
aF0.01935483870967742
aF0.06896551724137931
aF0.0
aF0.015384615384615385
aF0.021052631578947368
aF0.0
aF0.018518518518518517
aF0.03125
aF0.022988505747126436
aF0.022222222222222223
aF0.0
aF0.0
aF0.0
aF0.0
aF0.02197802197802198
aF0.0390625
aF0.00819672131147541
aF0.010256410256410256
aF0.011695906432748537
aF0.0
aF0.009433962264150943
aF0.0
aF0.02
aF0.018867924528301886
aF0.0
aF0.0
aF0.0
aF0.021739130434782608
aF0.02
aF0.018072289156626505
aF0.024691358024691357
aF0.0
aF0.02857142857142857
aF0.024390243902439025
aF0.0
aF0.019417475728155338
aF0.0
aF0.031746031746031744
aF0.023076923076923078
aF0.014925373134328358
aF0.014705882352941176
aF0.0
aF0.0
aF0.0
aF0.0
aF0.02127659574468085
aF0.0335195530726257
aF0.0
aF0.014285714285714285
aF0.0
aF0.06976744186046512
aF0.007633587786259542
aF0.0
aF0.038461538461538464
aF0.0
aF0.014492753623188406
aF0.0
aF0.0
aF0.0
aF0.021505376344086023
aF0.0
aF0.0
aF0.02040816326530612
aF0.010526315789473684
aF0.009389671361502348
aF0.0
aF0.005847953216374269
aF0.006944444444444444
aF0.0
aF0.008620689655172414
aF0.08333333333333333
aF0.0
aF0.0
aF0.009900990099009901
aF0.010869565217391304
aF0.0
aF0.03333333333333333
aF0.004672897196261682
aF0.01
aF0.0
aF0.0
aF0.0
aF0.005376344086021506
aF0.0
aF0.0
aF0.0
aF0.0
aF0.0
aF0.0
aF0.0
aF0.024390243902439025
aF0.00625
aF0.018518518518518517
aF0.021739130434782608
aF0.006369426751592357
aF0.02631578947368421
aF0.008403361344537815
aF0.0
aF0.0
aF0.012578616352201259
aF0.0
aF0.020833333333333332
aF0.0
aF0.03571428571428571
aF0.0
aF0.0
aF0.0
aF0.0
aF0.006024096385542169
aF0.0
aF0.10526315789473684
aF0.0
aF0.0136986301369863
aF0.004784688995215311
aF0.0
aF0.0
aF0.0
aF0.0
aF0.02857142857142857
aF0.0
aF0.0
aF0.01
aF0.0
aF0.0
aF0.0
aF0.01282051282051282
aF0.00980392156862745
aF0.0
aF0.02564102564102564
aF0.012658227848101266
aF0.020134228187919462
aF0.010869565217391304
aF0.0
aF0.038834951456310676
aF0.0
aF0.0
aF0.0
aF0.00641025641025641
aF0.018518518518518517
aF0.024844720496894408
aF0.017543859649122806
aF0.007407407407407408
aF0.004739336492890996
aF0.0
aF0.0
aF0.010362694300518135
aF0.00392156862745098
aF0.0
aF0.02857142857142857
aF0.006369426751592357
aF0.03571428571428571
aF0.0
aF0.006329113924050633
aF0.010638297872340425
aF0.0
aF0.01652892561983471
aF0.0
aF0.0
aF0.05
aF0.0
aF0.0
aF0.008928571428571428
aF0.02247191011235955
aF0.0
aF0.03333333333333333
aF0.045454545454545456
aF0.0
aF0.01935483870967742
aF0.0
aF0.009708737864077669
aF0.0
aF0.0
aF0.006756756756756757
aF0.016194331983805668
aF0.0
aF0.03333333333333333
aF0.006172839506172839
aF0.0
aF0.038461538461538464
aF0.0
aF0.0
aF0.0
aF0.0
aF0.0106951871657754
aF0.019736842105263157
aF0.0
aF0.03225806451612903
aF0.042105263157894736
aF0.0
aF0.020202020202020204
aF0.05128205128205128
aF0.0
aF0.0
aF0.0
aF0.023529411764705882
aF0.037037037037037035
aF0.045454545454545456
aF0.06818181818181818
aF0.0
aF0.015
aF0.01092896174863388
aF0.010752688172043012
aF0.020512820512820513
aF0.010416666666666666
aF0.00980392156862745
aF0.0425531914893617
aF0.012658227848101266
aF0.018691588785046728
aF0.011428571428571429
aF0.021739130434782608
aF0.008928571428571428
aF0.0
aF0.0
aF0.02564102564102564
aF0.03260869565217391
aF0.0
aF0.017543859649122806
aF0.012195121951219513
aF0.01639344262295082
aF0.0
aF0.0
aF0.013888888888888888
aF0.025210084033613446
aF0.02857142857142857
aF0.039603960396039604
aF0.0
aF0.0
aF0.006666666666666667
aF0.028985507246376812
aF0.041666666666666664
aF0.006060606060606061
aF0.011904761904761904
aF0.0
aF0.05333333333333334
aF0.014084507042253521
aF0.038461538461538464
aF0.0
aF0.015748031496062992
aF0.0
aF0.017857142857142856
aF0.0
aF0.04285714285714286
aF0.009478672985781991
aF0.0
aF0.0
aF0.0
aF0.0
aF0.02857142857142857
aF0.038461538461538464
aF0.0
aF0.0
aF0.0
aF0.0
aF0.010869565217391304
aF0.039473684210526314
aF0.0
aF0.0
aF0.0
aF0.0
aF0.0
aF0.0
aF0.0
aF0.0
aF0.0
aF0.0
aF0.0
aF0.022935779816513763
aF0.0
aF0.0
aF0.015151515151515152
aF0.0
aF0.027522935779816515
aF0.009345794392523364
aF0.01818181818181818
aF0.007194244604316547
aF0.0
aF0.0297029702970297
aF0.0
aF0.025
aF0.06451612903225806
aF0.015748031496062992
aF0.05660377358490566
aF0.017857142857142856
aF0.0
aF0.06060606060606061
aF0.0625
aF0.017857142857142856
aF0.02112676056338028
aF0.012345679012345678
aF0.03255813953488372
aF0.0
aF0.007751937984496124
aF0.0
aF0.018518518518518517
aF0.013392857142857142
aF0.03773584905660377
aF0.0273972602739726
aF0.0
aF0.015151515151515152
aF0.06756756756756757
aF0.020833333333333332
aF0.0
aF0.023391812865497075
aF0.0047169811320754715
aF0.0
aF0.007042253521126761
aF0.012269938650306749
aF0.0
aF0.0
aF0.0
aF0.0
aF0.011111111111111112
aF0.007352941176470588
aF0.03773584905660377
aF0.0
aF0.0
aF0.0
aF0.0
aF0.025974025974025976
aF0.0
aF0.04878048780487805
aF0.023809523809523808
aF0.0
aF0.0
aF0.017964071856287425
aF0.010101010101010102
aF0.011235955056179775
aF0.0
aF0.02127659574468085
aF0.0
aF0.022727272727272728
aF0.03409090909090909
aF0.022222222222222223
aF0.031413612565445025
aF0.010101010101010102
aF0.008032128514056224
aF0.0
aF0.022556390977443608
aF0.025210084033613446
aF0.011111111111111112
aF0.0
aF0.0
aF0.009259259259259259
aF0.035398230088495575
aF0.0
aF0.0
aF0.0410958904109589
aF0.013888888888888888
aF0.0
aa(lp3454
F0.06666666666666667
aF0.016666666666666666
aF0.03496503496503497
aF0.14814814814814814
aF0.06569343065693431
aF0.03546099290780142
aF0.041237113402061855
aF0.0297029702970297
aF0.03317535545023697
aF0.05
aF0.034482758620689655
aF0.011764705882352941
aF0.029850746268656716
aF0.0
aF0.0
aF0.0625
aF0.049079754601226995
aF0.0410958904109589
aF0.07857142857142857
aF0.0
aF0.03125
aF0.010526315789473684
aF0.05714285714285714
aF0.01282051282051282
aF0.0
aF0.0
aF0.04090909090909091
aF0.05263157894736842
aF0.0
aF0.03225806451612903
aF0.0136986301369863
aF0.013333333333333334
aF0.006711409395973154
aF0.05128205128205128
aF0.046511627906976744
aF0.022026431718061675
aF0.01486988847583643
aF0.07692307692307693
aF0.09433962264150944
aF0.0684931506849315
aF0.07142857142857142
aF0.03597122302158273
aF0.040983606557377046
aF0.018867924528301886
aF0.019230769230769232
aF0.0423728813559322
aF0.04081632653061224
aF0.06818181818181818
aF0.10714285714285714
aF0.01
aF0.045454545454545456
aF0.10638297872340426
aF0.06666666666666667
aF0.016129032258064516
aF0.06622516556291391
aF0.0
aF0.05084745762711865
aF0.022727272727272728
aF0.0684931506849315
aF0.04895104895104895
aF0.017857142857142856
aF0.041916167664670656
aF0.0392156862745098
aF0.01935483870967742
aF0.061855670103092786
aF0.013513513513513514
aF0.02
aF0.03225806451612903
aF0.0196078431372549
aF0.0
aF0.03571428571428571
aF0.022727272727272728
aF0.06
aF0.14814814814814814
aF0.016853932584269662
aF0.08888888888888889
aF0.03977272727272727
aF0.03389830508474576
aF0.0
aF0.024096385542168676
aF0.0
aF0.017241379310344827
aF0.03361344537815126
aF0.051643192488262914
aF0.03669724770642202
aF0.041666666666666664
aF0.047619047619047616
aF0.03571428571428571
aF0.041237113402061855
aF0.018867924528301886
aF0.03225806451612903
aF0.050359712230215826
aF0.037037037037037035
aF0.037267080745341616
aF0.06626506024096386
aF0.010101010101010102
aF0.09090909090909091
aF0.038461538461538464
aF0.17647058823529413
aF0.05714285714285714
aF0.047619047619047616
aF0.06896551724137931
aF0.03571428571428571
aF0.045454545454545456
aF0.07692307692307693
aF0.03508771929824561
aF0.0
aF0.006666666666666667
aF0.07142857142857142
aF0.06521739130434782
aF0.027777777777777776
aF0.0
aF0.02702702702702703
aF0.036585365853658534
aF0.02564102564102564
aF0.0967741935483871
aF0.13333333333333333
aF0.02702702702702703
aF0.019801980198019802
aF0.036585365853658534
aF0.023255813953488372
aF0.075
aF0.031746031746031744
aF0.0
aF0.0
aF0.06756756756756757
aF0.028169014084507043
aF0.041666666666666664
aF0.04424778761061947
aF0.03896103896103896
aF0.0
aF0.025974025974025976
aF0.036885245901639344
aF0.021052631578947368
aF0.03065134099616858
aF0.014705882352941176
aF0.05660377358490566
aF0.07142857142857142
aF0.0
aF0.019801980198019802
aF0.033816425120772944
aF0.030612244897959183
aF0.023529411764705882
aF0.034482758620689655
aF0.062146892655367235
aF0.03896103896103896
aF0.02
aF0.020833333333333332
aF0.01
aF0.12121212121212122
aF0.010638297872340425
aF0.045871559633027525
aF0.07692307692307693
aF0.038834951456310676
aF0.024630541871921183
aF0.07317073170731707
aF0.045454545454545456
aF0.07017543859649122
aF0.03314917127071823
aF0.09615384615384616
aF0.020833333333333332
aF0.05747126436781609
aF0.05970149253731343
aF0.029411764705882353
aF0.07272727272727272
aF0.036036036036036036
aF0.15789473684210525
aF0.0
aF0.05454545454545454
aF0.0
aF0.01818181818181818
aF0.022222222222222223
aF0.027777777777777776
aF0.06896551724137931
aF0.039473684210526314
aF0.030303030303030304
aF0.029411764705882353
aF0.038461538461538464
aF0.026143790849673203
aF0.023255813953488372
aF0.06666666666666667
aF0.019417475728155338
aF0.0
aF0.05970149253731343
aF0.21052631578947367
aF0.045454545454545456
aF0.027777777777777776
aF0.02054794520547945
aF0.0821917808219178
aF0.06504065040650407
aF0.011695906432748537
aF0.07142857142857142
aF0.08571428571428572
aF0.0
aF0.047619047619047616
aF0.029787234042553193
aF0.024242424242424242
aF0.03773584905660377
aF0.024691358024691357
aF0.08333333333333333
aF0.03389830508474576
aF0.027777777777777776
aF0.07894736842105263
aF0.0
aF0.06818181818181818
aF0.014084507042253521
aF0.02857142857142857
aF0.011904761904761904
aF0.046153846153846156
aF0.029411764705882353
aF0.03260869565217391
aF0.04878048780487805
aF0.0
aF0.028735632183908046
aF0.06666666666666667
aF0.0
aF0.029411764705882353
aF0.0
aF0.05194805194805195
aF0.028169014084507043
aF0.05405405405405406
aF0.047619047619047616
aF0.0
aF0.08333333333333333
aF0.05194805194805195
aF0.020833333333333332
aF0.0
aF0.0196078431372549
aF0.02197802197802198
aF0.04838709677419355
aF0.04929577464788732
aF0.1111111111111111
aF0.037037037037037035
aF0.0392156862745098
aF0.06896551724137931
aF0.034482758620689655
aF0.1
aF0.022222222222222223
aF0.014925373134328358
aF0.018867924528301886
aF0.03508771929824561
aF0.0949367088607595
aF0.06060606060606061
aF0.0821917808219178
aF0.0
aF0.017964071856287425
aF0.03867403314917127
aF0.024691358024691357
aF0.058823529411764705
aF0.039473684210526314
aF0.03333333333333333
aF0.0
aF0.07142857142857142
aF0.08536585365853659
aF0.06060606060606061
aF0.04838709677419355
aF0.03571428571428571
aF0.017857142857142856
aF0.0
aF0.08333333333333333
aF0.013513513513513514
aF0.08695652173913043
aF0.05
aF0.018867924528301886
aF0.024691358024691357
aF0.016666666666666666
aF0.027777777777777776
aF0.04838709677419355
aF0.046511627906976744
aF0.008403361344537815
aF0.08333333333333333
aF0.04854368932038835
aF0.07692307692307693
aF0.0
aF0.10377358490566038
aF0.021739130434782608
aF0.0457516339869281
aF0.07291666666666667
aF0.056179775280898875
aF0.08823529411764706
aF0.04
aF0.0
aF0.0
aF0.031746031746031744
aF0.08695652173913043
aF0.01834862385321101
aF0.03488372093023256
aF0.0
aF0.0625
aF0.03597122302158273
aF0.07035175879396985
aF0.0625
aF0.03773584905660377
aF0.0
aF0.035398230088495575
aF0.058823529411764705
aF0.03636363636363636
aF0.0
aF0.035398230088495575
aF0.01639344262295082
aF0.0
aF0.0
aF0.056451612903225805
aF0.010471204188481676
aF0.0
aF0.0
aF0.038461538461538464
aF0.026455026455026454
aF0.07692307692307693
aF0.03333333333333333
aF0.023255813953488372
aF0.0
aF0.05714285714285714
aF0.009302325581395349
aF0.08955223880597014
aF0.03225806451612903
aF0.02702702702702703
aF0.06976744186046512
aF0.022388059701492536
aF0.040983606557377046
aF0.05263157894736842
aF0.04046242774566474
aF0.04
aF0.02857142857142857
aF0.02843601895734597
aF0.03333333333333333
aF0.057692307692307696
aF0.0975609756097561
aF0.044444444444444446
aF0.04819277108433735
aF0.028985507246376812
aF0.024691358024691357
aF0.058823529411764705
aF0.0625
aF0.03389830508474576
aF0.03875968992248062
aF0.022222222222222223
aF0.08333333333333333
aF0.0446927374301676
aF0.062111801242236024
aF0.03571428571428571
aF0.0
aF0.01098901098901099
aF0.061224489795918366
aF0.041666666666666664
aF0.024242424242424242
aF0.0
aF0.043010752688172046
aF0.0
aF0.09615384615384616
aF0.0481283422459893
aF0.05263157894736842
aF0.0136986301369863
aF0.015
aF0.046632124352331605
aF0.06756756756756757
aF0.0
aF0.03333333333333333
aF0.02857142857142857
aF0.03827751196172249
aF0.04225352112676056
aF0.027777777777777776
aF0.16666666666666666
aF0.029239766081871343
aF0.0125
aF0.07692307692307693
aF0.053691275167785234
aF0.0
aF0.0136986301369863
aF0.057971014492753624
aF0.05263157894736842
aF0.04854368932038835
aF0.03333333333333333
aF0.015384615384615385
aF0.0425531914893617
aF0.0
aF0.11764705882352941
aF0.0
aF0.0375
aF0.06306306306306306
aF0.041666666666666664
aF0.04918032786885246
aF0.028925619834710745
aF0.047619047619047616
aF0.017241379310344827
aF0.03896103896103896
aF0.07079646017699115
aF0.047244094488188976
aF0.04477611940298507
aF0.0
aF0.043478260869565216
aF0.0
aF0.0
aF0.058823529411764705
aF0.05454545454545454
aF0.026595744680851064
aF0.0783132530120482
aF0.030303030303030304
aF0.01639344262295082
aF0.07103825136612021
aF0.0410958904109589
aF0.05172413793103448
aF0.024691358024691357
aF0.02564102564102564
aF0.04950495049504951
aF0.025
aF0.046153846153846156
aF0.021897810218978103
aF0.038461538461538464
aF0.05
aF0.024691358024691357
aF0.027777777777777776
aF0.014492753623188406
aF0.012658227848101266
aF0.023809523809523808
aF0.0
aF0.06666666666666667
aF0.03333333333333333
aF0.04046242774566474
aF0.0430622009569378
aF0.025974025974025976
aF0.029411764705882353
aF0.04918032786885246
aF0.034482758620689655
aF0.024390243902439025
aF0.03355704697986577
aF0.029850746268656716
aF0.18181818181818182
aF0.0
aF0.10810810810810811
aF0.018867924528301886
aF0.125
aF0.03626943005181347
aF0.0
aF0.01675977653631285
aF0.022900763358778626
aF0.03225806451612903
aF0.05084745762711865
aF0.02666666666666667
aF0.03211009174311927
aF0.029411764705882353
aF0.03289473684210526
aF0.02512562814070352
aF0.03773584905660377
aF0.0661764705882353
aF0.047619047619047616
aF0.03278688524590164
aF0.047619047619047616
aF0.05263157894736842
aF0.03571428571428571
aF0.011976047904191617
aF0.020618556701030927
aF0.029411764705882353
aF0.03048780487804878
aF0.03571428571428571
aF0.012658227848101266
aF0.06140350877192982
aF0.03529411764705882
aF0.11538461538461539
aF0.05625
aF0.045454545454545456
aF0.012578616352201259
aF0.05851063829787234
aF0.038834951456310676
aF0.041666666666666664
aF0.03389830508474576
aF0.03636363636363636
aF0.0967741935483871
aF0.02857142857142857
aF0.056910569105691054
aF0.06944444444444445
aF0.07142857142857142
aF0.02877697841726619
aF0.0
aF0.027777777777777776
aF0.057971014492753624
aF0.0
aF0.032432432432432434
aF0.03488372093023256
aF0.04
aF0.08163265306122448
aF0.05555555555555555
aF0.08955223880597014
aF0.044444444444444446
aF0.06578947368421052
aF0.04
aF0.022857142857142857
aF0.020833333333333332
aF0.019801980198019802
aF0.0
aF0.1
aF0.015384615384615385
aF0.007751937984496124
aF0.05263157894736842
aF0.041666666666666664
aF0.03125
aF0.029850746268656716
aF0.03592814371257485
aF0.10377358490566038
aF0.0
aF0.010752688172043012
aF0.02512562814070352
aF0.023668639053254437
aF0.02631578947368421
aF0.043209876543209874
aF0.1016949152542373
aF0.024509803921568627
aF0.01910828025477707
aF0.11428571428571428
aF0.0
aF0.04602510460251046
aF0.010526315789473684
aF0.03896103896103896
aF0.04838709677419355
aF0.07272727272727272
aF0.03
aF0.031413612565445025
aF0.01680672268907563
aF0.06542056074766354
aF0.03125
aF0.049079754601226995
aF0.049586776859504134
aF0.07272727272727272
aF0.02247191011235955
aF0.054945054945054944
aF0.0425531914893617
aF0.03225806451612903
aF0.02
aF0.08695652173913043
aF0.05263157894736842
aF0.0
aF0.04046242774566474
aF0.06521739130434782
aF0.03571428571428571
aF0.014814814814814815
aF0.041666666666666664
aF0.05309734513274336
aF0.041666666666666664
aF0.03125
aF0.012269938650306749
aF0.038461538461538464
aF0.03636363636363636
aF0.014563106796116505
aF0.08108108108108109
aF0.05405405405405406
aF0.024752475247524754
aF0.012738853503184714
aF0.018867924528301886
aF0.02247191011235955
aF0.04929577464788732
aF0.036585365853658534
aF0.022935779816513763
aF0.04712041884816754
aF0.018292682926829267
aF0.04838709677419355
aF0.08695652173913043
aF0.015151515151515152
aF0.07792207792207792
aF0.05813953488372093
aF0.04895104895104895
aF0.07058823529411765
aF0.034482758620689655
aF0.06451612903225806
aF0.05741626794258373
aF0.023952095808383235
aF0.05
aF0.0
aF0.03571428571428571
aF0.043010752688172046
aF0.031007751937984496
aF0.007518796992481203
aF0.05803571428571429
aF0.016666666666666666
aF0.06060606060606061
aF0.022988505747126436
aF0.041379310344827586
aF0.02631578947368421
aF0.012987012987012988
aF0.009615384615384616
aF0.018867924528301886
aF0.03333333333333333
aF0.028985507246376812
aF0.009615384615384616
aF0.02912621359223301
aF0.02830188679245283
aF0.01
aF0.0
aF0.09411764705882353
aF0.06060606060606061
aF0.015873015873015872
aF0.03125
aF0.125
aF0.0
aF0.0
aF0.0
aF0.0364963503649635
aF0.027131782945736434
aF0.03669724770642202
aF0.05357142857142857
aF0.03296703296703297
aF0.08
aF0.057692307692307696
aF0.03389830508474576
aF0.03007518796992481
aF0.02857142857142857
aF0.023809523809523808
aF0.04081632653061224
aF0.08
aF0.01282051282051282
aF0.0
aF0.015625
aF0.03333333333333333
aF0.06521739130434782
aF0.02072538860103627
aF0.015384615384615385
aF0.0
aF0.022727272727272728
aF0.057971014492753624
aF0.016666666666666666
aF0.025
aF0.0
aF0.027522935779816515
aF0.038461538461538464
aF0.05521472392638037
aF0.05714285714285714
aF0.020689655172413793
aF0.030303030303030304
aF0.045454545454545456
aF0.022388059701492536
aF0.0
aF0.05154639175257732
aF0.06306306306306306
aF0.06666666666666667
aF0.06666666666666667
aF0.04950495049504951
aF0.017857142857142856
aF0.0
aF0.03208556149732621
aF0.15625
aF0.0625
aF0.03867403314917127
aF0.0430622009569378
aF0.05202312138728324
aF0.03636363636363636
aF0.0273972602739726
aF0.06451612903225806
aF0.03759398496240601
aF0.125
aF0.0375
aF0.0
aF0.13636363636363635
aF0.011904761904761904
aF0.04938271604938271
aF0.028409090909090908
aF0.13333333333333333
aF0.09523809523809523
aF0.06074766355140187
aF0.0
aF0.03184713375796178
aF0.013605442176870748
aF0.05142857142857143
aF0.014084507042253521
aF0.0
aF0.006756756756756757
aF0.015625
aF0.05952380952380952
aF0.027522935779816515
aF0.07547169811320754
aF0.021739130434782608
aF0.04838709677419355
aF0.047619047619047616
aF0.018518518518518517
aF0.014705882352941176
aF0.04580152671755725
aF0.05813953488372093
aF0.05714285714285714
aF0.05084745762711865
aF0.0625
aF0.10714285714285714
aF0.052083333333333336
aF0.029850746268656716
aF0.11627906976744186
aF0.02564102564102564
aF0.02564102564102564
aF0.047244094488188976
aF0.04580152671755725
aF0.0
aF0.030303030303030304
aF0.05
aF0.048484848484848485
aF0.06666666666666667
aF0.011111111111111112
aF0.10714285714285714
aF0.022900763358778626
aF0.03773584905660377
aF0.022727272727272728
aF0.08064516129032258
aF0.03508771929824561
aF0.05652173913043478
aF0.025906735751295335
aF0.027649769585253458
aF0.0
aF0.0967741935483871
aF0.025
aF0.13636363636363635
aF0.03875968992248062
aF0.046511627906976744
aF0.08235294117647059
aF0.044444444444444446
aF0.08108108108108109
aF0.10869565217391304
aF0.07857142857142857
aF0.03125
aF0.0
aF0.012345679012345678
aF0.05263157894736842
aF0.07142857142857142
aF0.036036036036036036
aF0.04918032786885246
aF0.07692307692307693
aF0.1
aF0.03225806451612903
aF0.038461538461538464
aF0.0196078431372549
aF0.07894736842105263
aF0.05714285714285714
aF0.08163265306122448
aF0.044444444444444446
aF0.0326530612244898
aF0.008771929824561403
aF0.03676470588235294
aF0.06666666666666667
aF0.05
aF0.011695906432748537
aF0.009433962264150943
aF0.0
aF0.045454545454545456
aF0.03409090909090909
aF0.019230769230769232
aF0.0
aF0.017543859649122806
aF0.04790419161676647
aF0.015625
aF0.04519774011299435
aF0.05
aF0.01834862385321101
aF0.03184713375796178
aF0.05
aF0.016736401673640166
aF0.052980132450331126
aF0.05405405405405406
aF0.01639344262295082
aF0.009259259259259259
aF0.010810810810810811
aF0.041666666666666664
aF0.037037037037037035
aF0.05511811023622047
aF0.038461538461538464
aF0.04
aF0.06976744186046512
aF0.05
aF0.04132231404958678
aF0.11320754716981132
aF0.03932584269662921
aF0.0
aF0.0
aF0.019230769230769232
aF0.02962962962962963
aF0.02040816326530612
aF0.015503875968992248
aF0.02631578947368421
aF0.039473684210526314
aF0.045714285714285714
aF0.027777777777777776
aF0.028846153846153848
aF0.031746031746031744
aF0.05434782608695652
aF0.047058823529411764
aF0.03389830508474576
aF0.0
aF0.03773584905660377
aF0.010869565217391304
aF0.04597701149425287
aF0.058823529411764705
aF0.030303030303030304
aF0.015151515151515152
aF0.04878048780487805
aF0.047619047619047616
aF0.0196078431372549
aF0.044444444444444446
aF0.05555555555555555
aF0.047619047619047616
aF0.12903225806451613
aF0.05
aF0.029411764705882353
aF0.0196078431372549
aF0.04
aF0.06060606060606061
aF0.05161290322580645
aF0.10344827586206896
aF0.0
aF0.038461538461538464
aF0.06315789473684211
aF0.02631578947368421
aF0.0
aF0.041666666666666664
aF0.011494252873563218
aF0.0
aF0.058823529411764705
aF0.05555555555555555
aF0.02877697841726619
aF0.036231884057971016
aF0.04395604395604396
aF0.015625
aF0.06557377049180328
aF0.05128205128205128
aF0.04093567251461988
aF0.13157894736842105
aF0.009433962264150943
aF0.043010752688172046
aF0.04
aF0.0330188679245283
aF0.15384615384615385
aF0.05263157894736842
aF0.09523809523809523
aF0.016304347826086956
aF0.02
aF0.030120481927710843
aF0.024691358024691357
aF0.023809523809523808
aF0.04285714285714286
aF0.0975609756097561
aF0.05454545454545454
aF0.04854368932038835
aF0.030303030303030304
aF0.031746031746031744
aF0.015384615384615385
aF0.029850746268656716
aF0.029411764705882353
aF0.0
aF0.027777777777777776
aF0.0
aF0.0
aF0.02127659574468085
aF0.0223463687150838
aF0.11627906976744186
aF0.03571428571428571
aF0.078125
aF0.023255813953488372
aF0.03816793893129771
aF0.057971014492753624
aF0.02564102564102564
aF0.03333333333333333
aF0.050724637681159424
aF0.0967741935483871
aF0.08823529411764706
aF0.020833333333333332
aF0.03225806451612903
aF0.043478260869565216
aF0.03553299492385787
aF0.07142857142857142
aF0.07368421052631578
aF0.04225352112676056
aF0.08333333333333333
aF0.023391812865497075
aF0.06944444444444445
aF0.04
aF0.034482758620689655
aF0.0
aF0.06593406593406594
aF0.0851063829787234
aF0.0891089108910891
aF0.03260869565217391
aF0.08536585365853659
aF0.0
aF0.018691588785046728
aF0.055
aF0.018518518518518517
aF0.0380952380952381
aF0.0625
aF0.053763440860215055
aF0.02586206896551724
aF0.09523809523809523
aF0.047619047619047616
aF0.01694915254237288
aF0.04225352112676056
aF0.03225806451612903
aF0.009615384615384616
aF0.056910569105691054
aF0.05625
aF0.037037037037037035
aF0.021739130434782608
aF0.07006369426751592
aF0.02631578947368421
aF0.008403361344537815
aF0.0625
aF0.0
aF0.025157232704402517
aF0.016
aF0.052083333333333336
aF0.02702702702702703
aF0.10714285714285714
aF0.03571428571428571
aF0.045454545454545456
aF0.0
aF0.02564102564102564
aF0.03614457831325301
aF0.053763440860215055
aF0.0
aF0.07547169811320754
aF0.0136986301369863
aF0.023923444976076555
aF0.05
aF0.0
aF0.0
aF0.06493506493506493
aF0.02857142857142857
aF0.06896551724137931
aF0.041666666666666664
aF0.04
aF0.0
aF0.08108108108108109
aF0.08695652173913043
aF0.05128205128205128
aF0.029411764705882353
aF0.046875
aF0.02564102564102564
aF0.06329113924050633
aF0.020134228187919462
aF0.043478260869565216
aF0.0
aF0.08737864077669903
aF0.04
aF0.0
aF0.018867924528301886
aF0.038461538461538464
aF0.024691358024691357
aF0.037267080745341616
aF0.017543859649122806
aF0.037037037037037035
aF0.023696682464454975
aF0.12121212121212122
aF0.011111111111111112
aF0.0051813471502590676
aF0.06274509803921569
aF0.038461538461538464
aF0.05
aF0.050955414012738856
aF0.0
aF0.05
aF0.03164556962025317
aF0.031914893617021274
aF0.13636363636363635
aF0.024793388429752067
aF0.1111111111111111
aF0.1
aF0.05
aF0.047619047619047616
aF0.06
aF0.07142857142857142
aF0.011235955056179775
aF0.0975609756097561
aF0.03333333333333333
aF0.09090909090909091
aF0.0
aF0.012903225806451613
aF0.03225806451612903
aF0.038834951456310676
aF0.08571428571428572
aF0.08247422680412371
aF0.07432432432432433
aF0.06072874493927125
aF0.0
aF0.06666666666666667
aF0.043209876543209874
aF0.037037037037037035
aF0.057692307692307696
aF0.037037037037037035
aF0.037037037037037035
aF0.07692307692307693
aF0.2
aF0.0481283422459893
aF0.02631578947368421
aF0.021739130434782608
aF0.04838709677419355
aF0.042105263157894736
aF0.2
aF0.04040404040404041
aF0.05128205128205128
aF0.02857142857142857
aF0.05357142857142857
aF0.09090909090909091
aF0.029411764705882353
aF0.0
aF0.09090909090909091
aF0.0
aF0.0
aF0.03
aF0.03825136612021858
aF0.053763440860215055
aF0.046153846153846156
aF0.020833333333333332
aF0.05392156862745098
aF0.02127659574468085
aF0.02531645569620253
aF0.018691588785046728
aF0.05714285714285714
aF0.021739130434782608
aF0.044642857142857144
aF0.0
aF0.0
aF0.02564102564102564
aF0.03804347826086957
aF0.1
aF0.017543859649122806
aF0.036585365853658534
aF0.03278688524590164
aF0.0
aF0.10344827586206896
aF0.013888888888888888
aF0.01680672268907563
aF0.0
aF0.019801980198019802
aF0.0
aF0.02857142857142857
aF0.04666666666666667
aF0.028985507246376812
aF0.041666666666666664
aF0.04242424242424243
aF0.0
aF0.046511627906976744
aF0.02666666666666667
aF0.028169014084507043
aF0.057692307692307696
aF0.08571428571428572
aF0.015748031496062992
aF0.0
aF0.05357142857142857
aF0.07407407407407407
aF0.04285714285714286
aF0.03317535545023697
aF0.015151515151515152
aF0.0
aF0.041666666666666664
aF0.027777777777777776
aF0.02857142857142857
aF0.11538461538461539
aF0.03007518796992481
aF0.04819277108433735
aF0.024390243902439025
aF0.11382113821138211
aF0.021739130434782608
aF0.06578947368421052
aF0.2
aF0.0
aF0.05263157894736842
aF0.0
aF0.07228915662650602
aF0.09302325581395349
aF0.04040404040404041
aF0.25
aF0.03125
aF0.00980392156862745
aF0.058823529411764705
aF0.013761467889908258
aF0.1
aF0.05084745762711865
aF0.045454545454545456
aF0.02631578947368421
aF0.027522935779816515
aF0.018691588785046728
aF0.03636363636363636
aF0.03597122302158273
aF0.030303030303030304
aF0.0297029702970297
aF0.0
aF0.06
aF0.0
aF0.05511811023622047
aF0.05660377358490566
aF0.008928571428571428
aF0.038834951456310676
aF0.04040404040404041
aF0.0
aF0.03571428571428571
aF0.028169014084507043
aF0.037037037037037035
aF0.018604651162790697
aF0.0
aF0.046511627906976744
aF0.0
aF0.05555555555555555
aF0.03125
aF0.018867924528301886
aF0.0821917808219178
aF0.0
aF0.0
aF0.013513513513513514
aF0.041666666666666664
aF0.02040816326530612
aF0.07017543859649122
aF0.0330188679245283
aF0.03048780487804878
aF0.04929577464788732
aF0.03680981595092025
aF0.05555555555555555
aF0.03389830508474576
aF0.021739130434782608
aF0.024193548387096774
aF0.044444444444444446
aF0.029411764705882353
aF0.05660377358490566
aF0.011363636363636364
aF0.0
aF0.024691358024691357
aF0.05357142857142857
aF0.05194805194805195
aF0.04225352112676056
aF0.0
aF0.07142857142857142
aF0.01694915254237288
aF0.21428571428571427
aF0.03592814371257485
aF0.0707070707070707
aF0.033707865168539325
aF0.09090909090909091
aF0.02127659574468085
aF0.012987012987012988
aF0.09090909090909091
aF0.03409090909090909
aF0.022222222222222223
aF0.05235602094240838
aF0.030303030303030304
aF0.040160642570281124
aF0.06711409395973154
aF0.022556390977443608
aF0.025210084033613446
aF0.05
aF0.027777777777777776
aF0.022900763358778626
aF0.027777777777777776
aF0.0
aF0.05263157894736842
aF0.041666666666666664
aF0.0319634703196347
aF0.0
aF0.0
aa.