(lp0
F385.0
aF444.0
aF442.0
aF207.33333333333334
aF567.4285714285714
aF768.8
aF777.0
aF380.1666666666667
aF808.8571428571429
aF610.7142857142857
aF546.5
aF499.0
aF495.6666666666667
aF565.0
aF301.0
aF413.8333333333333
aF784.4
aF320.6
aF498.85714285714283
aF387.5
aF457.6666666666667
aF592.5
aF245.0
aF481.0
aF549.3333333333334
aF405.75
aF891.7142857142857
aF388.25
aF330.5
aF538.7142857142857
aF592.5
aF419.0
aF598.1428571428571
aF397.6666666666667
aF474.25
aF743.7142857142857
aF947.2857142857143
aF459.0
aF418.0
aF296.1666666666667
aF245.0
aF587.1666666666666
aF433.1666666666667
aF431.5
aF288.5
aF491.1666666666667
aF880.0
aF416.2
aF203.33333333333334
aF420.6
aF352.5
aF405.3333333333333
aF227.5
aF379.0
aF487.14285714285717
aF186.0
aF613.8
aF572.5
aF760.8
aF724.6
aF799.6666666666666
aF648.3333333333334
aF423.3333333333333
aF504.7142857142857
aF497.2
aF360.1666666666667
aF835.6
aF371.0
aF441.8
aF259.25
aF619.0
aF629.0
aF405.8333333333333
aF370.5
aF998.8
aF416.0
aF640.5714285714286
aF754.25
aF408.0
aF425.0
aF485.5
aF464.3333333333333
aF548.4
aF751.5714285714286
aF976.8333333333334
aF663.5
aF381.75
aF556.0
aF603.25
aF466.3333333333333
aF542.5
aF570.3333333333334
aF463.14285714285717
aF647.6666666666666
aF616.8571428571429
aF714.3333333333334
aF190.0
aF374.2
aF451.0
aF628.0
aF784.0
aF410.5
aF465.6666666666667
aF441.8
aF369.0
aF375.25
aF571.0
aF448.0
aF783.2
aF631.5
aF709.0
aF484.0
aF461.75
aF403.4
aF294.0
aF443.0
aF283.3333333333333
aF751.4
aF961.2
aF473.25
aF723.0
aF660.8333333333334
aF498.6666666666667
aF450.0
aF183.5
aF665.0
aF357.75
aF301.5
aF707.0
aF496.25
aF395.0
aF520.5
aF888.1428571428571
aF560.0
aF856.0
aF551.6666666666666
aF372.5
aF191.0
aF464.5
aF323.57142857142856
aF777.2857142857143
aF722.4285714285714
aF646.6666666666666
aF641.0
aF634.1428571428571
aF587.6666666666666
aF655.6666666666666
aF452.0
aF575.5
aF395.0
aF428.5
aF926.3333333333334
aF411.0
aF512.0
aF870.1666666666666
aF260.3333333333333
aF335.0
aF804.0
aF674.1428571428571
aF449.3333333333333
aF346.5
aF501.25
aF656.8571428571429
aF651.75
aF650.8333333333334
aF723.25
aF267.5
aF363.0
aF407.6666666666667
aF345.75
aF398.6666666666667
aF418.0
aF977.0
aF331.0
aF693.6666666666666
aF551.0
aF841.2857142857143
aF567.0
aF578.8333333333334
aF191.5
aF386.6
aF569.25
aF609.0
aF527.6666666666666
aF286.5
aF849.4285714285714
aF795.0
aF481.14285714285717
aF506.0
aF561.1666666666666
aF982.0
aF354.0
aF291.6666666666667
aF778.0
aF402.0
aF919.4285714285714
aF707.1666666666666
aF630.2
aF485.0
aF438.3333333333333
aF662.0
aF495.5
aF532.5
aF260.0
aF438.25
aF502.7142857142857
aF450.5
aF707.6666666666666
aF377.25
aF396.6
aF445.2
aF369.3333333333333
aF253.0
aF968.4
aF659.4285714285714
aF343.6666666666667
aF659.6666666666666
aF298.0
aF506.0
aF576.2
aF335.0
aF547.0
aF216.0
aF406.5
aF870.8571428571429
aF439.0
aF290.5
aF331.25
aF595.5
aF616.3333333333334
aF488.14285714285717
aF344.5
aF269.5
aF298.75
aF396.0
aF387.25
aF270.5
aF547.1666666666666
aF608.3333333333334
aF367.3333333333333
aF718.0
aF628.6666666666666
aF262.3333333333333
aF719.0
aF351.5
aF690.1666666666666
aF992.8
aF689.6666666666666
aF389.0
aF627.0
aF286.6666666666667
aF277.5
aF495.25
aF480.75
aF402.5
aF367.5
aF706.7142857142857
aF425.6666666666667
aF436.0
aF427.75
aF349.8
aF433.25
aF329.0
aF410.3333333333333
aF655.0
aF508.3333333333333
aF632.0
aF900.2857142857143
aF623.6
aF386.0
aF658.2
aF422.8333333333333
aF353.0
aF176.0
aF448.57142857142856
aF893.7142857142857
aF538.7142857142857
aF455.0
aF284.3333333333333
aF327.0
aF160.5
aF429.0
aF540.0
aF392.85714285714283
aF681.3333333333334
aF698.5
aF539.75
aF507.0
aF407.0
aF677.2
aF733.2857142857143
aF558.5
aF756.5
aF153.0
aF351.2857142857143
aF377.5
aF642.5
aF433.5
aF716.0
aF574.6666666666666
aF434.75
aF590.0
aF432.2857142857143
aF997.2
aF468.0
aF353.6
aF502.5
aF609.1428571428571
aF899.0
aF458.4
aF417.0
aF237.5
aF364.6
aF804.8333333333334
aF253.0
aF376.0
aF541.5
aF592.0
aF445.0
aF487.0
aF515.5
aF654.5
aF511.0
aF705.8333333333334
aF787.1666666666666
aF324.5
aF589.5
aF329.3333333333333
aF291.75
aF426.25
aF756.8
aF351.5
aF477.0
aF475.0
aF526.0
aF625.8
aF359.0
aF264.6666666666667
aF591.4285714285714
aF713.5
aF428.0
aF395.6
aF543.75
aF442.6666666666667
aF208.33333333333334
aF558.5
aF260.5
aF597.0
aF557.2
aF617.2857142857143
aF531.0
aF356.0
aF644.2857142857143
aF427.5
aF618.7142857142857
aF245.0
aF422.0
aF456.14285714285717
aF738.2857142857143
aF857.5
aF257.3333333333333
aF186.0
aF618.1428571428571
aF429.2
aF451.0
aF620.3333333333334
aF451.0
aF498.0
aF737.5714285714286
aF509.75
aF495.0
aF649.5
aF430.2
aF456.6666666666667
aF534.5
aF521.2
aF158.66666666666666
aF273.5
aF356.8
aF610.8
aF527.0
aF460.3333333333333
aF1014.5714285714286
aF255.0
aF547.0
aF485.0
aF479.0
aF474.14285714285717
aF398.4
aF468.0
aF514.0
aF509.0
aF325.5
aF555.0
aF649.8333333333334
aF728.1666666666666
aF624.4285714285714
aF626.0
aF439.3333333333333
aF672.3333333333334
aF557.0
aF584.6666666666666
aF821.4
aF448.5
aF603.75
aF403.5
aF616.6
aF713.25
aF376.3333333333333
aF551.25
aF445.0
aF433.75
aF432.5
aF336.6666666666667
aF165.0
aF385.8
aF251.0
aF558.0
aF786.3333333333334
aF640.3333333333334
aF372.0
aF631.0
aF246.66666666666666
aF432.0
aF552.2857142857143
aF310.2
aF209.0
aF286.3333333333333
aF427.0
aF373.3333333333333
aF208.5
aF831.6666666666666
aF400.25
aF706.8333333333334
aF814.0
aF502.0
aF747.0
aF1009.0
aF469.0
aF813.5714285714286
aF576.2857142857143
aF723.1428571428571
aF422.0
aF522.5
aF685.25
aF382.2857142857143
aF562.0
aF497.75
aF610.0
aF696.8333333333334
aF427.1666666666667
aF599.0
aF550.2857142857143
aF500.5
aF320.1666666666667
aF1021.6666666666666
aF833.0
aF456.0
aF590.3333333333334
aF597.0
aF543.6666666666666
aF619.8571428571429
aF569.2
aF722.6
aF605.0
aF852.2857142857143
aF740.0
aF708.0
aF469.5
aF524.6
aF533.6666666666666
aF357.6
aF631.8
aF585.4285714285714
aF630.0
aF461.0
aF537.0
aF819.0
aF898.6
aF470.0
aF349.6666666666667
aF182.0
aF340.6
aF375.0
aF633.3333333333334
aF593.0
aF763.4
aF597.75
aF421.4
aF574.0
aF275.3333333333333
aF337.75
aF605.2
aF263.5
aF570.0
aF332.0
aF468.85714285714283
aF562.2857142857143
aF207.0
aF508.1666666666667
aF576.25
aF921.2
aF449.5
aF746.3333333333334
aF714.8333333333334
aF354.75
aF771.0
aF635.5
aF384.6666666666667
aF788.1428571428571
aF246.0
aF529.25
aF614.6666666666666
aF390.8333333333333
aF700.5
aF373.3333333333333
aF520.4
aF495.8333333333333
aF396.0
aF723.1666666666666
aF619.7142857142857
aF411.85714285714283
aF505.3333333333333
aF447.0
aF563.5
aF565.4285714285714
aF782.4
aF480.6
aF498.2
aF773.5
aF486.0
aF756.3333333333334
aF375.3333333333333
aF500.25
aF449.0
aF698.0
aF819.8571428571429
aF555.0
aF341.25
aF655.3333333333334
aF609.0
aF343.75
aF1032.0
aF281.0
aF652.75
aF765.4285714285714
aF670.5
aF536.0
aF489.75
aF573.3333333333334
aF842.4
aF731.5714285714286
aF770.2857142857143
aF717.8333333333334
aF403.75
aF358.1666666666667
aF875.5
aF459.25
aF733.0
aF629.2
aF405.3333333333333
aF745.0
aF378.5
aF693.1428571428571
aF636.1666666666666
aF378.6666666666667
aF603.6666666666666
aF192.0
aF408.0
aF565.3333333333334
aF491.1666666666667
aF902.0
aF468.3333333333333
aF683.6
aF508.25
aF720.8
aF636.6666666666666
aF338.4
aF546.0
aF598.75
aF531.0
aF575.3333333333334
aF823.3333333333334
aF431.0
aF441.0
aF465.25
aF254.66666666666666
aF621.0
aF441.3333333333333
aF472.3333333333333
aF587.0
aF534.0
aF305.0
aF289.3333333333333
aF978.1428571428571
aF574.0
aF1076.2
aF366.5
aF775.6666666666666
aF363.5
aF516.3333333333334
aF486.8
aF654.0
aF690.4
aF817.0
aF849.1428571428571
aF402.3333333333333
aF634.25
aF485.6666666666667
aF553.75
aF553.6666666666666
aF872.1428571428571
aF605.0
aF605.8571428571429
aF782.0
aF532.0
aF373.0
aF434.75
aF742.5
aF297.6666666666667
aF450.0
aF516.4
aF372.25
aF865.4
aF426.1666666666667
aF825.0
aF688.5714285714286
aF552.0
aF458.0
aF372.6666666666667
aF621.0
aF614.6
aF422.0
aF566.1666666666666
aF471.0
aF340.5
aF203.0
aF1061.2
aF428.0
aF424.6666666666667
aF685.0
aF882.1428571428571
aF986.0
aF472.0
aF429.5
aF406.5
aF757.6
aF851.6
aF418.0
aF489.0
aF359.3333333333333
aF432.0
aF528.75
aF817.5
aF309.0
aF219.0
aF688.7142857142857
aF217.0
aF565.1428571428571
aF590.6666666666666
aF791.6666666666666
aF498.25
aF244.0
aF528.6666666666666
aF559.6
aF590.1428571428571
aF657.75
aF448.6666666666667
aF567.5
aF662.1428571428571
aF556.0
aF505.0
aF345.0
aF470.0
aF499.75
aF580.6666666666666
aF708.0
aF381.5
aF467.2
aF442.75
aF327.3333333333333
aF410.8333333333333
aF397.25
aF364.75
aF857.75
aF860.4285714285714
aF204.0
aF345.8333333333333
aF366.0
aF932.0
aF282.6666666666667
aF492.25
aF460.5
aF591.2
aF711.5
aF846.25
aF629.3333333333334
aF459.0
aF849.0
aF826.8333333333334
aF818.8571428571429
aF293.0
aF258.6666666666667
aF657.6
aF292.0
aF417.7142857142857
aF302.0
aF452.6
aF529.3333333333334
aF844.2
aF606.5
aF653.6
aF722.0
aF381.0
aF635.0
aF600.6666666666666
aF497.7142857142857
aF751.4285714285714
aF293.6
aF435.0
aF200.0
aF836.0
aF401.4
aF520.0
aF439.75
aF397.0
aF479.6666666666667
aF320.42857142857144
aF1208.6
aF697.0
aF636.2
aF318.5
aF359.0
aF496.85714285714283
aF582.5
aF197.0
aF378.25
aF432.0
aF568.75
aF375.0
aF828.0
aF643.3333333333334
aF636.25
aF695.8571428571429
aF482.0
aF618.0
aF560.0
aF563.3333333333334
aF839.2857142857143
aF479.2857142857143
aF447.0
aF684.7142857142857
aF606.2
aF1143.0
aF505.5
aF646.25
aF533.8333333333334
aF449.5
aF207.0
aF294.3333333333333
aF529.5
aF619.2
aF548.3333333333334
aF989.0
aF356.0
aF468.0
aF553.4
aF560.5714285714286
aF650.5
aF736.25
aF932.8
aF396.75
aF686.8333333333334
aF468.0
aF843.8333333333334
aF592.0
aF446.2
aF616.6666666666666
aF279.6
aF203.0
aF611.25
aF528.75
aF600.0
aF653.2
aF292.0
aF242.75
aF613.4
aF445.5
aF503.0
aF379.6666666666667
aF363.25
aF410.6666666666667
aF429.0
aF230.33333333333334
aF272.6666666666667
aF423.3333333333333
aF646.0
aF344.0
aF534.2857142857143
aF333.0
aF332.5
aF478.8333333333333
aF649.75
aF742.25
aF742.5
aF598.25
aF646.0
aF429.0
aF295.3333333333333
aF320.2
aF411.57142857142856
aF524.6666666666666
aF802.6666666666666
aF769.0
aF506.1666666666667
aF868.8333333333334
aF755.0
aF274.6666666666667
aF415.8
aF746.5
aF365.3333333333333
aF776.7142857142857
aF351.0
aF587.0
aF564.6666666666666
aF739.8333333333334
aF546.75
aF520.0
aF502.0
aF537.1428571428571
aF532.0
aF251.0
aF442.0
aF541.6
aF624.4
aF788.5
aF782.75
aF599.6666666666666
aF337.25
aF374.0
aF244.66666666666666
aF495.3333333333333
aF556.0
aF349.6666666666667
aF628.0
aF610.0
aF959.5
aF305.4
aF423.0
aF434.0
aF426.5
aF794.4285714285714
aF849.0
aF441.4
aF433.2857142857143
aF361.0
aF806.6666666666666
aF273.25
aF585.25
aF416.6666666666667
aF723.1428571428571
aF667.7142857142857
aF425.0
aF327.6666666666667
aF836.0
aF581.8333333333334
aF556.0
aF459.1666666666667
aF317.0
aF393.0
aF442.0
aF356.14285714285717
aF402.8333333333333
aF674.5
aF604.0
aF929.8
aF660.2857142857143
aF640.75
aF470.6
aF473.0
aF667.8333333333334
aF451.3333333333333
aF346.0
aF344.6666666666667
aF296.4
aF416.0
aF357.5
aF471.0
aF660.4
aF579.2857142857143
aF461.0
aF522.5
aF638.1428571428571
aF309.0
aF390.0
aF291.0
aF474.6666666666667
aF700.8
aF515.6
aF721.75
aF331.0
aF310.0
aF468.6666666666667
aF561.0
aF581.0
aF495.0
aF748.8333333333334
aF394.4
aF283.5
aF393.0
aF393.0
aF734.5714285714286
aF518.0
aF599.0
aF224.0
aF465.5
aF410.5
aF453.8
aF482.0
aF475.4
aF380.6666666666667
aF481.0
aF356.0
aF421.4
aF666.7142857142857
aF386.0
aF699.0
aF649.6666666666666
aF752.0
aF411.1666666666667
aF234.0
aF533.4
aF589.5
aF403.8
aF308.25
aF552.5
aF581.5714285714286
aF727.6
aF748.75
aF564.0
aF729.8571428571429
aF397.5
aF417.0
aF852.2
aF988.2857142857143
aF648.0
aF567.3333333333334
aF529.5714285714286
aF459.25
aF489.0
aF528.1428571428571
aF477.6
aF587.3333333333334
aF496.0
aF503.0
aF317.0
aF510.0
aF527.0
aF637.2857142857143
aF925.6666666666666
aF477.75
aF345.0
aF317.0
aF343.0
aF344.0
aF518.4285714285714
aF331.0
aF411.0
aF271.3333333333333
aF463.8
aF785.6
aF862.0
aF642.0
aF409.0
aF567.1428571428571
aF595.5
aF508.0
aF471.25
aF361.0
aF425.1666666666667
aF189.0
aF674.2857142857143
aF606.6666666666666
aF396.0
aF418.5
aF370.0
aF253.33333333333334
aF381.0
aF354.6666666666667
aF368.6
aF425.75
aF587.75
aF648.6666666666666
aF724.0
aF689.0
aF491.0
aF375.0
aF732.0
aF793.3333333333334
aF388.0
aF1022.8
aF412.3333333333333
aF854.8333333333334
aF321.75
aF641.3333333333334
aF428.8
aF967.8
aF531.0
aF415.8333333333333
aF579.5
aF197.5
aF665.1666666666666
aF630.8571428571429
aF240.0
aF721.5
aF389.0
aF486.0
aF353.0
aF321.0
aF349.0
aF689.2
aF225.0
aF1049.6
aF325.0
aF341.6
aF581.1666666666666
aF300.8
aF314.0
aF858.0
aF562.75
aF388.6
aF353.0
aF408.25
aF456.6666666666667
aF451.0
aF394.7142857142857
aF659.0
aF343.5
aF368.3333333333333
aF578.3333333333334
aF818.8333333333334
aF465.5
aF431.0
aF567.0
aF634.3333333333334
aF559.6666666666666
aF248.66666666666666
aF448.8333333333333
aF554.0
aF359.3333333333333
aF443.85714285714283
aF609.25
aF460.75
aF182.0
aF581.0
aF359.25
aF383.3333333333333
aF346.1666666666667
aF396.0
aF357.42857142857144
aF550.0
aF390.0
aF430.8
aF642.0
aF929.8333333333334
aF476.6666666666667
aF166.5
aF826.0
aF342.6666666666667
aF666.0
aF580.5
aF388.1666666666667
aF467.42857142857144
aF319.0
aF829.3333333333334
aF510.5
aF859.0
aF267.0
aF825.0
aF285.5
aF473.2
aF394.8333333333333
aF563.75
aF352.0
aF646.75
aF569.3333333333334
aF435.0
aF891.5
aF703.4
aF532.5
aF457.0
aF1078.6666666666667
aF294.0
aF505.5
aF338.0
aF560.0
aF540.0
aF413.6666666666667
aF421.3333333333333
aF467.25
aF697.8333333333334
aF733.4285714285714
aF550.4285714285714
aF551.0
aF539.7142857142857
aF208.5
aF379.3333333333333
aF532.5
aF716.2
aF772.0
aF582.0
aF457.0
aF468.75
aF413.0
aF585.5
aF760.5
aF445.14285714285717
aF308.3333333333333
aF329.6666666666667
aF357.0
aF617.0
aF442.0
aF669.0
aF590.25
aF424.4
aF427.5
aF611.5
aF513.5
aF332.5
aF428.0
aF954.0
aF748.0
aF556.75
aF843.0
aF674.1666666666666
aF642.2
aF688.75
aF593.0
aF229.0
aF456.5
aF668.5
aF437.6666666666667
aF236.0
aF248.0
aF870.8333333333334
aF537.0
aF868.0
a.